GAS LISTING C:\Users\abdul\AppData\Local\Temp\ccOfckb4.s 			page 1


   1              		.file	"adc.c"
   2              		.option nopic
   3              		.attribute arch, "rv32i2p0_m2p0_a2p0_c2p0"
   4              		.attribute unaligned_access, 0
   5              		.attribute stack_align, 16
   6              		.text
   7              	.Ltext0:
   8              		.cfi_sections	.debug_frame
   9              		.section	.text.ADC3powerUpInit,"ax",@progbits
  10              		.align	1
  11              		.globl	ADC3powerUpInit
  13              	ADC3powerUpInit:
  14              	.LFB2:
  15              		.file 1 "adc.c"
   1:adc.c         **** #include "adc.h"
   2:adc.c         **** #include "gd32vf103.h"
   3:adc.c         **** 
   4:adc.c         **** uint16_t adc_values[2];
   5:adc.c         **** 
   6:adc.c         **** void ADC3powerUpInit(int tmp)
   7:adc.c         **** {
  16              		.loc 1 7 1
  17              		.cfi_startproc
  18              	.LVL0:
   8:adc.c         ****     rcu_periph_clock_enable(RCU_GPIOA);
  19              		.loc 1 8 5
   7:adc.c         ****     rcu_periph_clock_enable(RCU_GPIOA);
  20              		.loc 1 7 1 is_stmt 0
  21 0000 7971     		addi	sp,sp,-48
  22              	.LCFI0:
  23              		.cfi_def_cfa_offset 48
  24 0002 26D2     		sw	s1,36(sp)
  25              		.cfi_offset 9, -12
  26 0004 AA84     		mv	s1,a0
  27              		.loc 1 8 5
  28 0006 13052060 		li	a0,1538
  29              	.LVL1:
   7:adc.c         ****     rcu_periph_clock_enable(RCU_GPIOA);
  30              		.loc 1 7 1
  31 000a 06D6     		sw	ra,44(sp)
  32 000c 22D4     		sw	s0,40(sp)
  33              		.cfi_offset 1, -4
  34              		.cfi_offset 8, -8
  35              		.loc 1 8 5
  36 000e 97000000 		call	rcu_periph_clock_enable
  36      E7800000 
  37              	.LVL2:
   9:adc.c         ****     rcu_periph_clock_enable(RCU_ADC0);
  38              		.loc 1 9 5 is_stmt 1
  39 0016 13059060 		li	a0,1545
  40 001a 97000000 		call	rcu_periph_clock_enable
  40      E7800000 
  41              	.LVL3:
  10:adc.c         ****     rcu_periph_clock_enable(RCU_DMA0);        
  42              		.loc 1 10 5
  43 0022 13050050 		li	a0,1280
  44 0026 97000000 		call	rcu_periph_clock_enable
GAS LISTING C:\Users\abdul\AppData\Local\Temp\ccOfckb4.s 			page 2


  44      E7800000 
  45              	.LVL4:
  11:adc.c         ****     rcu_adc_clock_config(RCU_CKADC_CKAPB2_DIV8);
  46              		.loc 1 11 5
  47 002e 0D45     		li	a0,3
  48 0030 97000000 		call	rcu_adc_clock_config
  48      E7800000 
  49              	.LVL5:
  12:adc.c         **** 
  13:adc.c         ****     gpio_init(GPIOA, GPIO_MODE_AIN, GPIO_OSPEED_50MHZ, GPIO_PIN_3 | GPIO_PIN_1);
  50              		.loc 1 13 5
  51 0038 37150140 		li	a0,1073811456
  52 003c A946     		li	a3,10
  53 003e 0D46     		li	a2,3
  54 0040 8145     		li	a1,0
  55 0042 13050580 		addi	a0,a0,-2048
  56 0046 97000000 		call	gpio_init
  56      E7800000 
  57              	.LVL6:
  14:adc.c         **** 
  15:adc.c         ****     adc_deinit(ADC0);
  58              		.loc 1 15 5
  59 004e 37240140 		li	s0,1073815552
  60 0052 13050440 		addi	a0,s0,1024
  61 0056 97000000 		call	adc_deinit
  61      E7800000 
  62              	.LVL7:
  16:adc.c         ****     adc_mode_config(ADC_MODE_FREE);
  63              		.loc 1 16 5
  64 005e 0145     		li	a0,0
  65 0060 97000000 		call	adc_mode_config
  65      E7800000 
  66              	.LVL8:
  17:adc.c         ****     adc_special_function_config(ADC0, ADC_CONTINUOUS_MODE, ENABLE);  
  67              		.loc 1 17 5
  68 0068 0546     		li	a2,1
  69 006a 8945     		li	a1,2
  70 006c 13050440 		addi	a0,s0,1024
  71 0070 97000000 		call	adc_special_function_config
  71      E7800000 
  72              	.LVL9:
  18:adc.c         ****     adc_special_function_config(ADC0, ADC_SCAN_MODE, ENABLE);
  73              		.loc 1 18 5
  74 0078 0546     		li	a2,1
  75 007a 93050010 		li	a1,256
  76 007e 13050440 		addi	a0,s0,1024
  77 0082 97000000 		call	adc_special_function_config
  77      E7800000 
  78              	.LVL10:
  19:adc.c         **** 
  20:adc.c         ****     adc_data_alignment_config(ADC0, ADC_DATAALIGN_RIGHT);
  79              		.loc 1 20 5
  80 008a 8145     		li	a1,0
  81 008c 13050440 		addi	a0,s0,1024
  82 0090 97000000 		call	adc_data_alignment_config
  82      E7800000 
  83              	.LVL11:
GAS LISTING C:\Users\abdul\AppData\Local\Temp\ccOfckb4.s 			page 3


  21:adc.c         ****     adc_channel_length_config(ADC0, ADC_REGULAR_CHANNEL, 2);
  84              		.loc 1 21 5
  85 0098 0946     		li	a2,2
  86 009a 8545     		li	a1,1
  87 009c 13050440 		addi	a0,s0,1024
  88 00a0 97000000 		call	adc_channel_length_config
  88      E7800000 
  89              	.LVL12:
  22:adc.c         **** 
  23:adc.c         ****     adc_regular_channel_config(ADC0, 0, ADC_CHANNEL_3, ADC_SAMPLETIME_13POINT5);
  90              		.loc 1 23 5
  91 00a8 8946     		li	a3,2
  92 00aa 0D46     		li	a2,3
  93 00ac 8145     		li	a1,0
  94 00ae 13050440 		addi	a0,s0,1024
  95 00b2 97000000 		call	adc_regular_channel_config
  95      E7800000 
  96              	.LVL13:
  24:adc.c         ****     adc_regular_channel_config(ADC0, 1, ADC_CHANNEL_1, ADC_SAMPLETIME_13POINT5);
  97              		.loc 1 24 5
  98 00ba 8946     		li	a3,2
  99 00bc 0546     		li	a2,1
 100 00be 8545     		li	a1,1
 101 00c0 13050440 		addi	a0,s0,1024
 102 00c4 97000000 		call	adc_regular_channel_config
 102      E7800000 
 103              	.LVL14:
  25:adc.c         **** 
  26:adc.c         ****     adc_external_trigger_source_config(ADC0, ADC_REGULAR_CHANNEL, ADC0_1_EXTTRIG_REGULAR_NONE);
 104              		.loc 1 26 5
 105 00cc 37060E00 		li	a2,917504
 106 00d0 8545     		li	a1,1
 107 00d2 13050440 		addi	a0,s0,1024
 108 00d6 97000000 		call	adc_external_trigger_source_config
 108      E7800000 
 109              	.LVL15:
  27:adc.c         ****     adc_external_trigger_config(ADC0, ADC_REGULAR_CHANNEL, ENABLE);
 110              		.loc 1 27 5
 111 00de 0546     		li	a2,1
 112 00e0 8545     		li	a1,1
 113 00e2 13050440 		addi	a0,s0,1024
 114 00e6 97000000 		call	adc_external_trigger_config
 114      E7800000 
 115              	.LVL16:
  28:adc.c         **** 
  29:adc.c         ****     if (tmp) {
 116              		.loc 1 29 5
 117              		.loc 1 29 8 is_stmt 0
 118 00ee 9DCC     		beq	s1,zero,.L2
  30:adc.c         ****         adc_special_function_config(ADC0, ADC_INSERTED_CHANNEL_AUTO, ENABLE);
 119              		.loc 1 30 9 is_stmt 1
 120 00f0 0546     		li	a2,1
 121 00f2 93050040 		li	a1,1024
 122 00f6 13050440 		addi	a0,s0,1024
 123 00fa 97000000 		call	adc_special_function_config
 123      E7800000 
 124              	.LVL17:
GAS LISTING C:\Users\abdul\AppData\Local\Temp\ccOfckb4.s 			page 4


  31:adc.c         ****         adc_channel_length_config(ADC0, ADC_INSERTED_CHANNEL, 1);
 125              		.loc 1 31 9
 126 0102 0546     		li	a2,1
 127 0104 8945     		li	a1,2
 128 0106 13050440 		addi	a0,s0,1024
 129 010a 97000000 		call	adc_channel_length_config
 129      E7800000 
 130              	.LVL18:
  32:adc.c         ****         adc_tempsensor_vrefint_enable();
 131              		.loc 1 32 9
 132 0112 97000000 		call	adc_tempsensor_vrefint_enable
 132      E7800000 
 133              	.LVL19:
  33:adc.c         ****         adc_inserted_channel_config(ADC0, 0, ADC_CHANNEL_16, ADC_SAMPLETIME_239POINT5);
 134              		.loc 1 33 9
 135 011a 9D46     		li	a3,7
 136 011c 4146     		li	a2,16
 137 011e 8145     		li	a1,0
 138 0120 13050440 		addi	a0,s0,1024
 139 0124 97000000 		call	adc_inserted_channel_config
 139      E7800000 
 140              	.LVL20:
 141              	.L2:
  34:adc.c         ****     }
  35:adc.c         **** 
  36:adc.c         ****     dma_parameter_struct dma_data_parameter;
 142              		.loc 1 36 5
  37:adc.c         ****     dma_deinit(DMA0, DMA_CH0);
 143              		.loc 1 37 5
 144 012c 8145     		li	a1,0
 145 012e 37050240 		li	a0,1073872896
 146 0132 97000000 		call	dma_deinit
 146      E7800000 
 147              	.LVL21:
  38:adc.c         ****     dma_data_parameter.periph_addr  = (uint32_t)(&ADC_RDATA(ADC0));
 148              		.loc 1 38 5
 149              		.loc 1 38 37 is_stmt 0
 150 013a 37240140 		li	s0,1073815552
 151 013e 9307C444 		addi	a5,s0,1100
 152 0142 3EC2     		sw	a5,4(sp)
  39:adc.c         ****     dma_data_parameter.periph_inc   = DMA_PERIPH_INCREASE_DISABLE;
 153              		.loc 1 39 5 is_stmt 1
  40:adc.c         ****     dma_data_parameter.memory_addr  = (uint32_t)adc_values;
 154              		.loc 1 40 5
  41:adc.c         ****     dma_data_parameter.memory_inc   = DMA_MEMORY_INCREASE_ENABLE;
  42:adc.c         ****     dma_data_parameter.periph_width = DMA_PERIPHERAL_WIDTH_16BIT;
  43:adc.c         ****     dma_data_parameter.memory_width = DMA_MEMORY_WIDTH_16BIT;
 155              		.loc 1 43 37 is_stmt 0
 156 0144 13070040 		li	a4,1024
  40:adc.c         ****     dma_data_parameter.memory_addr  = (uint32_t)adc_values;
 157              		.loc 1 40 37
 158 0148 B7070000 		lui	a5,%hi(adc_values)
 159              		.loc 1 43 37
 160 014c 3AC8     		sw	a4,16(sp)
  40:adc.c         ****     dma_data_parameter.memory_addr  = (uint32_t)adc_values;
 161              		.loc 1 40 37
 162 014e 93870700 		addi	a5,a5,%lo(adc_values)
GAS LISTING C:\Users\abdul\AppData\Local\Temp\ccOfckb4.s 			page 5


  44:adc.c         ****     dma_data_parameter.direction    = DMA_PERIPHERAL_TO_MEMORY;
  45:adc.c         ****     dma_data_parameter.number       = 2;
 163              		.loc 1 45 37
 164 0152 0947     		li	a4,2
  46:adc.c         ****     dma_data_parameter.priority     = DMA_PRIORITY_HIGH;
  47:adc.c         ****     dma_init(DMA0, DMA_CH0, &dma_data_parameter);
 165              		.loc 1 47 5
 166 0154 5000     		addi	a2,sp,4
  40:adc.c         ****     dma_data_parameter.memory_inc   = DMA_MEMORY_INCREASE_ENABLE;
 167              		.loc 1 40 37
 168 0156 3EC6     		sw	a5,12(sp)
  41:adc.c         ****     dma_data_parameter.periph_width = DMA_PERIPHERAL_WIDTH_16BIT;
 169              		.loc 1 41 5 is_stmt 1
  42:adc.c         ****     dma_data_parameter.memory_width = DMA_MEMORY_WIDTH_16BIT;
 170              		.loc 1 42 5
  45:adc.c         ****     dma_data_parameter.priority     = DMA_PRIORITY_HIGH;
 171              		.loc 1 45 37 is_stmt 0
 172 0158 3ACA     		sw	a4,20(sp)
  42:adc.c         ****     dma_data_parameter.memory_width = DMA_MEMORY_WIDTH_16BIT;
 173              		.loc 1 42 37
 174 015a 93070010 		li	a5,256
  46:adc.c         ****     dma_init(DMA0, DMA_CH0, &dma_data_parameter);
 175              		.loc 1 46 37
 176 015e 0967     		li	a4,8192
 177              		.loc 1 47 5
 178 0160 8145     		li	a1,0
 179 0162 37050240 		li	a0,1073872896
  42:adc.c         ****     dma_data_parameter.memory_width = DMA_MEMORY_WIDTH_16BIT;
 180              		.loc 1 42 37
 181 0166 3EC4     		sw	a5,8(sp)
  43:adc.c         ****     dma_data_parameter.direction    = DMA_PERIPHERAL_TO_MEMORY;
 182              		.loc 1 43 5 is_stmt 1
  44:adc.c         ****     dma_data_parameter.number       = 2;
 183              		.loc 1 44 5
  45:adc.c         ****     dma_data_parameter.priority     = DMA_PRIORITY_HIGH;
 184              		.loc 1 45 5
  46:adc.c         ****     dma_init(DMA0, DMA_CH0, &dma_data_parameter);
 185              		.loc 1 46 5
  46:adc.c         ****     dma_init(DMA0, DMA_CH0, &dma_data_parameter);
 186              		.loc 1 46 37 is_stmt 0
 187 0168 3ACC     		sw	a4,24(sp)
  39:adc.c         ****     dma_data_parameter.memory_addr  = (uint32_t)adc_values;
 188              		.loc 1 39 37
 189 016a 231EF100 		sh	a5,28(sp)
  44:adc.c         ****     dma_data_parameter.number       = 2;
 190              		.loc 1 44 37
 191 016e 230F0100 		sb	zero,30(sp)
 192              		.loc 1 47 5 is_stmt 1
 193 0172 97000000 		call	dma_init
 193      E7800000 
 194              	.LVL22:
  48:adc.c         ****     dma_circulation_enable(DMA0, DMA_CH0);
 195              		.loc 1 48 5
 196 017a 8145     		li	a1,0
 197 017c 37050240 		li	a0,1073872896
 198 0180 97000000 		call	dma_circulation_enable
 198      E7800000 
GAS LISTING C:\Users\abdul\AppData\Local\Temp\ccOfckb4.s 			page 6


 199              	.LVL23:
  49:adc.c         ****     dma_channel_enable(DMA0, DMA_CH0);
 200              		.loc 1 49 5
 201 0188 8145     		li	a1,0
 202 018a 37050240 		li	a0,1073872896
 203 018e 97000000 		call	dma_channel_enable
 203      E7800000 
 204              	.LVL24:
  50:adc.c         ****     adc_dma_mode_enable(ADC0);
 205              		.loc 1 50 5
 206 0196 13050440 		addi	a0,s0,1024
 207 019a 97000000 		call	adc_dma_mode_enable
 207      E7800000 
 208              	.LVL25:
  51:adc.c         **** 
  52:adc.c         ****     adc_enable(ADC0);
 209              		.loc 1 52 5
 210 01a2 13050440 		addi	a0,s0,1024
 211 01a6 97000000 		call	adc_enable
 211      E7800000 
 212              	.LVL26:
  53:adc.c         ****     for (int i = 0; i < 0xFFFF; i++);
 213              		.loc 1 53 5
 214              		.loc 1 53 10
  54:adc.c         ****     adc_calibration_enable(ADC0);
 215              		.loc 1 54 5
 216 01ae 13050440 		addi	a0,s0,1024
 217 01b2 97000000 		call	adc_calibration_enable
 217      E7800000 
 218              	.LVL27:
  55:adc.c         ****     for (int i = 0; i < 0xFFFF; i++);
 219              		.loc 1 55 5
 220              		.loc 1 55 10
  56:adc.c         ****     adc_software_trigger_enable(ADC0, ADC_REGULAR_CHANNEL);
 221              		.loc 1 56 5
 222 01ba 13050440 		addi	a0,s0,1024
 223 01be 8545     		li	a1,1
 224 01c0 97000000 		call	adc_software_trigger_enable
 224      E7800000 
 225              	.LVL28:
  57:adc.c         **** }...
 226              		.loc 1 57 1 is_stmt 0
 227 01c8 B250     		lw	ra,44(sp)
 228              		.cfi_restore 1
 229 01ca 2254     		lw	s0,40(sp)
 230              		.cfi_restore 8
 231 01cc 9254     		lw	s1,36(sp)
 232              		.cfi_restore 9
 233              	.LVL29:
 234 01ce 4561     		addi	sp,sp,48
 235              	.LCFI1:
 236              		.cfi_def_cfa_offset 0
 237 01d0 8280     		jr	ra
 238              		.cfi_endproc
 239              	.LFE2:
 241              		.comm	adc_values,4,4
 242              		.text
GAS LISTING C:\Users\abdul\AppData\Local\Temp\ccOfckb4.s 			page 7


 243              	.Letext0:
 244              		.file 2 "c:\\users\\abdul\\onedrive\\documents\\toolchain-gd32v-v202-win\\compiler\\riscv64-unknow
 245              		.file 3 "c:\\users\\abdul\\onedrive\\documents\\toolchain-gd32v-v202-win\\compiler\\riscv64-unknow
 246              		.file 4 "adc.h"
 247              		.file 5 "./../../firmware/GD32VF103_standard_peripheral/system_gd32vf103.h"
 248              		.file 6 "./../../firmware/GD32VF103_standard_peripheral/gd32vf103.h"
 249              		.file 7 "./../../firmware/GD32VF103_standard_peripheral/Include/gd32vf103_dma.h"
 250              		.file 8 "./../../firmware/GD32VF103_standard_peripheral/Include/gd32vf103_rcu.h"
 251              		.file 9 "./../../firmware/GD32VF103_standard_peripheral/Include/gd32vf103_gpio.h"
 252              		.file 10 "./../../firmware/GD32VF103_standard_peripheral/Include/gd32vf103_adc.h"
GAS LISTING C:\Users\abdul\AppData\Local\Temp\ccOfckb4.s 			page 8

