GAS LISTING C:\Users\abdul\AppData\Local\Temp\ccKJPghk.s 			page 1


   1              		.file	"lioonewire.c"
   2              		.option nopic
   3              		.attribute arch, "rv32i2p0_m2p0_a2p0_c2p0"
   4              		.attribute unaligned_access, 0
   5              		.attribute stack_align, 16
   6              		.text
   7              	.Ltext0:
   8              		.cfi_sections	.debug_frame
   9              		.section	.text.dpin_drive,"ax",@progbits
  10              		.align	1
  11              		.globl	dpin_drive
  13              	dpin_drive:
  14              	.LFB2:
  15              		.file 1 "lioonewire.c"
   1:lioonewire.c  **** /*
   2:lioonewire.c  ****  * File:   onewire.c
   3:lioonewire.c  ****  * Author: remahl
   4:lioonewire.c  ****  *
   5:lioonewire.c  ****  * Created on September 19, 2019, 11:40 AM
   6:lioonewire.c  ****  */
   7:lioonewire.c  **** 
   8:lioonewire.c  **** #include <stdint.h>
   9:lioonewire.c  **** #include "lioonewire.h"
  10:lioonewire.c  **** #include "gd32vf103.h"
  11:lioonewire.c  **** 
  12:lioonewire.c  **** #define SKIP_ROM            0xCC
  13:lioonewire.c  **** #define WRITE_SCRATCH_PAD   0x4E
  14:lioonewire.c  **** #define READ_SCRATCH_PAD    0xBE
  15:lioonewire.c  **** #define START_CONVERSION    0x44
  16:lioonewire.c  **** #define COPY_SCRATCHPAD     0x48
  17:lioonewire.c  **** #define RECALL_EEPROM       0xB8
  18:lioonewire.c  **** #define READ_POWER_SUPPLY   0xB4
  19:lioonewire.c  **** 
  20:lioonewire.c  **** #define CONFIG_9BIT         0x1F
  21:lioonewire.c  **** #define CONFIG_10BIT        0x3F
  22:lioonewire.c  **** #define CONFIG_11BIT        0x5F
  23:lioonewire.c  **** #define CONFIG_12BIT        0x7F
  24:lioonewire.c  **** 
  25:lioonewire.c  **** #define T_A 6
  26:lioonewire.c  **** #define T_B 64
  27:lioonewire.c  **** #define T_C 60
  28:lioonewire.c  **** #define T_D 10
  29:lioonewire.c  **** #define T_E 9
  30:lioonewire.c  **** #define T_F 55
  31:lioonewire.c  **** #define T_G 0
  32:lioonewire.c  **** #define T_H 480
  33:lioonewire.c  **** #define T_I 70
  34:lioonewire.c  **** #define T_J 410
  35:lioonewire.c  **** 
  36:lioonewire.c  **** #define DPIN  GPIO_PIN_5   
  37:lioonewire.c  **** #define DPORT GPIOB
  38:lioonewire.c  **** 
  39:lioonewire.c  **** 
  40:lioonewire.c  **** 
  41:lioonewire.c  **** 
  42:lioonewire.c  **** void dpin_drive(){
  16              		.loc 1 42 18
GAS LISTING C:\Users\abdul\AppData\Local\Temp\ccKJPghk.s 			page 2


  17              		.cfi_startproc
  43:lioonewire.c  ****     gpio_bit_reset(DPORT, DPIN);
  18              		.loc 1 43 5
  19 0000 37150140 		li	a0,1073811456
  20 0004 93050002 		li	a1,32
  21 0008 130505C0 		addi	a0,a0,-1024
  22 000c 17030000 		tail	gpio_bit_reset
  22      67000300 
  23              	.LVL0:
  24              		.cfi_endproc
  25              	.LFE2:
  27              		.section	.text.dpin_release,"ax",@progbits
  28              		.align	1
  29              		.globl	dpin_release
  31              	dpin_release:
  32              	.LFB3:
  44:lioonewire.c  **** }
  45:lioonewire.c  **** void dpin_release(){
  33              		.loc 1 45 20
  34              		.cfi_startproc
  46:lioonewire.c  ****     gpio_bit_set(DPORT, DPIN);
  35              		.loc 1 46 5
  36 0000 37150140 		li	a0,1073811456
  37 0004 93050002 		li	a1,32
  38 0008 130505C0 		addi	a0,a0,-1024
  39 000c 17030000 		tail	gpio_bit_set
  39      67000300 
  40              	.LVL1:
  41              		.cfi_endproc
  42              	.LFE3:
  44              		.section	.text.dpin_sample,"ax",@progbits
  45              		.align	1
  46              		.globl	dpin_sample
  48              	dpin_sample:
  49              	.LFB4:
  47:lioonewire.c  **** }
  48:lioonewire.c  **** 
  49:lioonewire.c  **** uint8_t dpin_sample(){
  50              		.loc 1 49 22
  51              		.cfi_startproc
  50:lioonewire.c  ****     return gpio_input_bit_get(DPORT, DPIN);
  52              		.loc 1 50 5
  53              		.loc 1 50 12 is_stmt 0
  54 0000 37150140 		li	a0,1073811456
  49:lioonewire.c  ****     return gpio_input_bit_get(DPORT, DPIN);
  55              		.loc 1 49 22
  56 0004 4111     		addi	sp,sp,-16
  57              	.LCFI0:
  58              		.cfi_def_cfa_offset 16
  59              		.loc 1 50 12
  60 0006 93050002 		li	a1,32
  61 000a 130505C0 		addi	a0,a0,-1024
  49:lioonewire.c  ****     return gpio_input_bit_get(DPORT, DPIN);
  62              		.loc 1 49 22
  63 000e 06C6     		sw	ra,12(sp)
  64              		.cfi_offset 1, -4
  65              		.loc 1 50 12
GAS LISTING C:\Users\abdul\AppData\Local\Temp\ccKJPghk.s 			page 3


  66 0010 97000000 		call	gpio_input_bit_get
  66      E7800000 
  67              	.LVL2:
  51:lioonewire.c  **** }
  68              		.loc 1 51 1
  69 0018 B240     		lw	ra,12(sp)
  70              		.cfi_restore 1
  71 001a 1375F50F 		andi	a0,a0,0xff
  72 001e 4101     		addi	sp,sp,16
  73              	.LCFI1:
  74              		.cfi_def_cfa_offset 0
  75 0020 8280     		jr	ra
  76              		.cfi_endproc
  77              	.LFE4:
  79              		.section	.text.lio_init_OW,"ax",@progbits
  80              		.align	1
  81              		.globl	lio_init_OW
  83              	lio_init_OW:
  84              	.LFB5:
  52:lioonewire.c  **** 
  53:lioonewire.c  **** 
  54:lioonewire.c  **** int first_read = 1;
  55:lioonewire.c  **** 
  56:lioonewire.c  **** 
  57:lioonewire.c  **** void lio_init_OW(){
  85              		.loc 1 57 19 is_stmt 1
  86              		.cfi_startproc
  58:lioonewire.c  ****     rcu_periph_clock_enable(RCU_GPIOB);
  87              		.loc 1 58 5
  57:lioonewire.c  ****     rcu_periph_clock_enable(RCU_GPIOB);
  88              		.loc 1 57 19 is_stmt 0
  89 0000 4111     		addi	sp,sp,-16
  90              	.LCFI2:
  91              		.cfi_def_cfa_offset 16
  92              		.loc 1 58 5
  93 0002 13053060 		li	a0,1539
  57:lioonewire.c  ****     rcu_periph_clock_enable(RCU_GPIOB);
  94              		.loc 1 57 19
  95 0006 06C6     		sw	ra,12(sp)
  96              		.cfi_offset 1, -4
  97              		.loc 1 58 5
  98 0008 97000000 		call	rcu_periph_clock_enable
  98      E7800000 
  99              	.LVL3:
  59:lioonewire.c  ****     gpio_init(DPORT, GPIO_MODE_OUT_OD, GPIO_OSPEED_50MHZ, DPIN);
 100              		.loc 1 59 5 is_stmt 1
  60:lioonewire.c  **** }
 101              		.loc 1 60 1 is_stmt 0
 102 0010 B240     		lw	ra,12(sp)
 103              		.cfi_restore 1
  59:lioonewire.c  ****     gpio_init(DPORT, GPIO_MODE_OUT_OD, GPIO_OSPEED_50MHZ, DPIN);
 104              		.loc 1 59 5
 105 0012 37150140 		li	a0,1073811456
 106              		.loc 1 60 1
  59:lioonewire.c  ****     gpio_init(DPORT, GPIO_MODE_OUT_OD, GPIO_OSPEED_50MHZ, DPIN);
 107              		.loc 1 59 5
 108 0016 93060002 		li	a3,32
GAS LISTING C:\Users\abdul\AppData\Local\Temp\ccKJPghk.s 			page 4


 109 001a 0D46     		li	a2,3
 110 001c D145     		li	a1,20
 111 001e 130505C0 		addi	a0,a0,-1024
 112              		.loc 1 60 1
 113 0022 4101     		addi	sp,sp,16
 114              	.LCFI3:
 115              		.cfi_def_cfa_offset 0
  59:lioonewire.c  ****     gpio_init(DPORT, GPIO_MODE_OUT_OD, GPIO_OSPEED_50MHZ, DPIN);
 116              		.loc 1 59 5
 117 0024 17030000 		tail	gpio_init
 117      67000300 
 118              	.LVL4:
 119              		.cfi_endproc
 120              	.LFE5:
 122              		.section	.text.lio_OW_write_bit,"ax",@progbits
 123              		.align	1
 124              		.globl	lio_OW_write_bit
 126              	lio_OW_write_bit:
 127              	.LFB6:
  61:lioonewire.c  **** 
  62:lioonewire.c  **** 
  63:lioonewire.c  **** void lio_OW_write_bit(uint8_t val){
 128              		.loc 1 63 35 is_stmt 1
 129              		.cfi_startproc
 130              	.LVL5:
  64:lioonewire.c  ****     if(val){
 131              		.loc 1 64 5
  63:lioonewire.c  ****     if(val){
 132              		.loc 1 63 35 is_stmt 0
 133 0000 4111     		addi	sp,sp,-16
 134              	.LCFI4:
 135              		.cfi_def_cfa_offset 16
 136 0002 06C6     		sw	ra,12(sp)
 137              		.cfi_offset 1, -4
 138              		.loc 1 64 7
 139 0004 15C5     		beq	a0,zero,.L8
 140              	.LVL6:
 141              	.LBB4:
 142              	.LBB5:
  65:lioonewire.c  ****         dpin_drive();
 143              		.loc 1 65 9 is_stmt 1
 144 0006 97000000 		call	dpin_drive
 144      E7800000 
 145              	.LVL7:
  66:lioonewire.c  ****         tick_delay(T_A);
 146              		.loc 1 66 9
 147 000e 1945     		li	a0,6
 148 0010 97000000 		call	delay_1us
 148      E7800000 
 149              	.LVL8:
  67:lioonewire.c  ****         dpin_release();
 150              		.loc 1 67 9
 151 0018 97000000 		call	dpin_release
 151      E7800000 
 152              	.LVL9:
  68:lioonewire.c  ****         tick_delay(T_B);
 153              		.loc 1 68 9
GAS LISTING C:\Users\abdul\AppData\Local\Temp\ccKJPghk.s 			page 5


 154 0020 13050004 		li	a0,64
 155              	.L10:
 156              	.LBE5:
 157              	.LBE4:
  69:lioonewire.c  ****     }
  70:lioonewire.c  ****     else{
  71:lioonewire.c  ****         dpin_drive();
  72:lioonewire.c  ****         tick_delay(T_C);
  73:lioonewire.c  ****         dpin_release();
  74:lioonewire.c  ****         tick_delay(T_D);
  75:lioonewire.c  ****     }
  76:lioonewire.c  **** }
 158              		.loc 1 76 1 is_stmt 0
 159 0024 B240     		lw	ra,12(sp)
 160              		.cfi_remember_state
 161              		.cfi_restore 1
 162 0026 4101     		addi	sp,sp,16
 163              	.LCFI5:
 164              		.cfi_def_cfa_offset 0
  74:lioonewire.c  ****     }
 165              		.loc 1 74 9
 166 0028 17030000 		tail	delay_1us
 166      67000300 
 167              	.LVL10:
 168              	.L8:
 169              	.LCFI6:
 170              		.cfi_restore_state
  71:lioonewire.c  ****         tick_delay(T_C);
 171              		.loc 1 71 9 is_stmt 1
 172 0030 97000000 		call	dpin_drive
 172      E7800000 
 173              	.LVL11:
  72:lioonewire.c  ****         dpin_release();
 174              		.loc 1 72 9
 175 0038 1305C003 		li	a0,60
 176 003c 97000000 		call	delay_1us
 176      E7800000 
 177              	.LVL12:
  73:lioonewire.c  ****         tick_delay(T_D);
 178              		.loc 1 73 9
 179 0044 97000000 		call	dpin_release
 179      E7800000 
 180              	.LVL13:
  74:lioonewire.c  ****     }
 181              		.loc 1 74 9
 182 004c 2945     		li	a0,10
 183 004e D9BF     		j	.L10
 184              		.cfi_endproc
 185              	.LFE6:
 187              		.section	.text.lio_OW_read_bit,"ax",@progbits
 188              		.align	1
 189              		.globl	lio_OW_read_bit
 191              	lio_OW_read_bit:
 192              	.LFB7:
  77:lioonewire.c  **** 
  78:lioonewire.c  **** uint8_t lio_OW_read_bit(){
 193              		.loc 1 78 26
GAS LISTING C:\Users\abdul\AppData\Local\Temp\ccKJPghk.s 			page 6


 194              		.cfi_startproc
  79:lioonewire.c  ****     uint8_t res = 0;
 195              		.loc 1 79 5
 196              	.LVL14:
  80:lioonewire.c  ****     dpin_drive();
 197              		.loc 1 80 5
  78:lioonewire.c  ****     uint8_t res = 0;
 198              		.loc 1 78 26 is_stmt 0
 199 0000 4111     		addi	sp,sp,-16
 200              	.LCFI7:
 201              		.cfi_def_cfa_offset 16
 202 0002 06C6     		sw	ra,12(sp)
 203 0004 22C4     		sw	s0,8(sp)
 204              		.cfi_offset 1, -4
 205              		.cfi_offset 8, -8
 206              		.loc 1 80 5
 207 0006 97000000 		call	dpin_drive
 207      E7800000 
 208              	.LVL15:
  81:lioonewire.c  ****     tick_delay(T_A);
 209              		.loc 1 81 5 is_stmt 1
 210 000e 1945     		li	a0,6
 211 0010 97000000 		call	delay_1us
 211      E7800000 
 212              	.LVL16:
  82:lioonewire.c  ****     dpin_release();
 213              		.loc 1 82 5
 214 0018 97000000 		call	dpin_release
 214      E7800000 
 215              	.LVL17:
  83:lioonewire.c  ****     tick_delay(T_E);
 216              		.loc 1 83 5
 217 0020 2545     		li	a0,9
 218 0022 97000000 		call	delay_1us
 218      E7800000 
 219              	.LVL18:
  84:lioonewire.c  ****     res = dpin_sample();
 220              		.loc 1 84 5
 221              		.loc 1 84 11 is_stmt 0
 222 002a 97000000 		call	dpin_sample
 222      E7800000 
 223              	.LVL19:
 224 0032 2A84     		mv	s0,a0
 225              	.LVL20:
  85:lioonewire.c  ****     tick_delay(T_F);
 226              		.loc 1 85 5 is_stmt 1
 227 0034 13057003 		li	a0,55
 228 0038 97000000 		call	delay_1us
 228      E7800000 
 229              	.LVL21:
  86:lioonewire.c  ****     return res;
 230              		.loc 1 86 5
  87:lioonewire.c  **** }
 231              		.loc 1 87 1 is_stmt 0
 232 0040 2285     		mv	a0,s0
 233 0042 B240     		lw	ra,12(sp)
 234              		.cfi_restore 1
GAS LISTING C:\Users\abdul\AppData\Local\Temp\ccKJPghk.s 			page 7


 235 0044 2244     		lw	s0,8(sp)
 236              		.cfi_restore 8
 237              	.LVL22:
 238 0046 4101     		addi	sp,sp,16
 239              	.LCFI8:
 240              		.cfi_def_cfa_offset 0
 241 0048 8280     		jr	ra
 242              		.cfi_endproc
 243              	.LFE7:
 245              		.section	.text.lio_OW_read_byte,"ax",@progbits
 246              		.align	1
 247              		.globl	lio_OW_read_byte
 249              	lio_OW_read_byte:
 250              	.LFB8:
  88:lioonewire.c  **** 
  89:lioonewire.c  **** uint8_t lio_OW_read_byte()
  90:lioonewire.c  **** {
 251              		.loc 1 90 1 is_stmt 1
 252              		.cfi_startproc
  91:lioonewire.c  ****     uint8_t result=0;
 253              		.loc 1 91 5
 254              	.LVL23:
  92:lioonewire.c  **** 
  93:lioonewire.c  ****     for (uint8_t i = 0; i < 8; i++){
 255              		.loc 1 93 5
 256              	.LBB6:
 257              		.loc 1 93 10
 258              	.LBE6:
  90:lioonewire.c  ****     uint8_t result=0;
 259              		.loc 1 90 1 is_stmt 0
 260 0000 4111     		addi	sp,sp,-16
 261              	.LCFI9:
 262              		.cfi_def_cfa_offset 16
 263 0002 22C4     		sw	s0,8(sp)
 264 0004 26C2     		sw	s1,4(sp)
 265 0006 06C6     		sw	ra,12(sp)
 266              		.cfi_offset 8, -8
 267              		.cfi_offset 9, -12
 268              		.cfi_offset 1, -4
  90:lioonewire.c  ****     uint8_t result=0;
 269              		.loc 1 90 1
 270 0008 A144     		li	s1,8
  91:lioonewire.c  ****     uint8_t result=0;
 271              		.loc 1 91 13
 272 000a 0144     		li	s0,0
 273              	.LVL24:
 274              	.L15:
 275              	.LBB7:
  94:lioonewire.c  ****             result >>= 1;
 276              		.loc 1 94 13 is_stmt 1
 277              		.loc 1 94 20 is_stmt 0
 278 000c 0580     		srli	s0,s0,1
 279              	.LVL25:
  95:lioonewire.c  **** 
  96:lioonewire.c  ****             if (lio_OW_read_bit())result |= 0x80;
 280              		.loc 1 96 13 is_stmt 1
 281              		.loc 1 96 17 is_stmt 0
GAS LISTING C:\Users\abdul\AppData\Local\Temp\ccKJPghk.s 			page 8


 282 000e 97000000 		call	lio_OW_read_bit
 282      E7800000 
 283              	.LVL26:
 284              		.loc 1 96 16
 285 0016 09C5     		beq	a0,zero,.L14
 286              		.loc 1 96 35 is_stmt 1 discriminator 1
 287              		.loc 1 96 42 is_stmt 0 discriminator 1
 288 0018 136404F8 		ori	s0,s0,-128
 289              	.LVL27:
 290 001c 1374F40F 		andi	s0,s0,0xff
 291              	.LVL28:
 292              	.L14:
 293 0020 FD14     		addi	s1,s1,-1
 294              	.LVL29:
 295 0022 93F4F40F 		andi	s1,s1,0xff
  93:lioonewire.c  ****             result >>= 1;
 296              		.loc 1 93 5 discriminator 2
 297 0026 FDF0     		bne	s1,zero,.L15
 298              	.LBE7:
  97:lioonewire.c  ****     }
  98:lioonewire.c  ****     return result;
 299              		.loc 1 98 5 is_stmt 1
  99:lioonewire.c  **** }
 300              		.loc 1 99 1 is_stmt 0
 301 0028 2285     		mv	a0,s0
 302 002a B240     		lw	ra,12(sp)
 303              		.cfi_restore 1
 304 002c 2244     		lw	s0,8(sp)
 305              		.cfi_restore 8
 306              	.LVL30:
 307 002e 9244     		lw	s1,4(sp)
 308              		.cfi_restore 9
 309 0030 4101     		addi	sp,sp,16
 310              	.LCFI10:
 311              		.cfi_def_cfa_offset 0
 312 0032 8280     		jr	ra
 313              		.cfi_endproc
 314              	.LFE8:
 316              		.section	.text.lio_OW_write_byte,"ax",@progbits
 317              		.align	1
 318              		.globl	lio_OW_write_byte
 320              	lio_OW_write_byte:
 321              	.LFB9:
 100:lioonewire.c  **** 
 101:lioonewire.c  **** void lio_OW_write_byte(uint8_t data){
 322              		.loc 1 101 37 is_stmt 1
 323              		.cfi_startproc
 324              	.LVL31:
 102:lioonewire.c  ****     for(int i = 0; i < 8; i++){
 325              		.loc 1 102 5
 326              	.LBB8:
 327              		.loc 1 102 9
 328              	.LBE8:
 101:lioonewire.c  ****     for(int i = 0; i < 8; i++){
 329              		.loc 1 101 37 is_stmt 0
 330 0000 4111     		addi	sp,sp,-16
 331              	.LCFI11:
GAS LISTING C:\Users\abdul\AppData\Local\Temp\ccKJPghk.s 			page 9


 332              		.cfi_def_cfa_offset 16
 333 0002 22C4     		sw	s0,8(sp)
 334 0004 26C2     		sw	s1,4(sp)
 335 0006 06C6     		sw	ra,12(sp)
 336              		.cfi_offset 8, -8
 337              		.cfi_offset 9, -12
 338              		.cfi_offset 1, -4
 101:lioonewire.c  ****     for(int i = 0; i < 8; i++){
 339              		.loc 1 101 37
 340 0008 AA84     		mv	s1,a0
 341              	.LVL32:
 342 000a 2144     		li	s0,8
 343              	.LVL33:
 344              	.L22:
 345              	.LBB9:
 103:lioonewire.c  ****         lio_OW_write_bit(data & 0x01);
 346              		.loc 1 103 9 is_stmt 1 discriminator 3
 347 000c 13F51400 		andi	a0,s1,1
 348 0010 7D14     		addi	s0,s0,-1
 349              	.LVL34:
 350 0012 97000000 		call	lio_OW_write_bit
 350      E7800000 
 351              	.LVL35:
 104:lioonewire.c  ****         data >>= 1;
 352              		.loc 1 104 9 discriminator 3
 353              		.loc 1 104 14 is_stmt 0 discriminator 3
 354 001a 8580     		srli	s1,s1,1
 355              	.LVL36:
 102:lioonewire.c  ****         lio_OW_write_bit(data & 0x01);
 356              		.loc 1 102 5 discriminator 3
 357 001c 65F8     		bne	s0,zero,.L22
 358              	.LBE9:
 105:lioonewire.c  ****     }
 106:lioonewire.c  **** }
 359              		.loc 1 106 1
 360 001e B240     		lw	ra,12(sp)
 361              		.cfi_restore 1
 362 0020 2244     		lw	s0,8(sp)
 363              		.cfi_restore 8
 364 0022 9244     		lw	s1,4(sp)
 365              		.cfi_restore 9
 366              	.LVL37:
 367 0024 4101     		addi	sp,sp,16
 368              	.LCFI12:
 369              		.cfi_def_cfa_offset 0
 370 0026 8280     		jr	ra
 371              		.cfi_endproc
 372              	.LFE9:
 374              		.section	.text.lio_OW_touch_reset,"ax",@progbits
 375              		.align	1
 376              		.globl	lio_OW_touch_reset
 378              	lio_OW_touch_reset:
 379              	.LFB10:
 107:lioonewire.c  **** 
 108:lioonewire.c  **** uint8_t lio_OW_touch_reset(void)
 109:lioonewire.c  **** {
 380              		.loc 1 109 1 is_stmt 1
GAS LISTING C:\Users\abdul\AppData\Local\Temp\ccKJPghk.s 			page 10


 381              		.cfi_startproc
 110:lioonewire.c  ****     uint8_t res = 0;
 382              		.loc 1 110 5
 383              	.LVL38:
 111:lioonewire.c  ****     tick_delay(T_G);
 384              		.loc 1 111 5
 109:lioonewire.c  ****     uint8_t res = 0;
 385              		.loc 1 109 1 is_stmt 0
 386 0000 4111     		addi	sp,sp,-16
 387              	.LCFI13:
 388              		.cfi_def_cfa_offset 16
 389              		.loc 1 111 5
 390 0002 0145     		li	a0,0
 109:lioonewire.c  ****     uint8_t res = 0;
 391              		.loc 1 109 1
 392 0004 06C6     		sw	ra,12(sp)
 393 0006 22C4     		sw	s0,8(sp)
 394              		.cfi_offset 1, -4
 395              		.cfi_offset 8, -8
 396              		.loc 1 111 5
 397 0008 97000000 		call	delay_1us
 397      E7800000 
 398              	.LVL39:
 112:lioonewire.c  ****     dpin_drive();
 399              		.loc 1 112 5 is_stmt 1
 400 0010 97000000 		call	dpin_drive
 400      E7800000 
 401              	.LVL40:
 113:lioonewire.c  ****     tick_delay(T_H);
 402              		.loc 1 113 5
 403 0018 1305001E 		li	a0,480
 404 001c 97000000 		call	delay_1us
 404      E7800000 
 405              	.LVL41:
 114:lioonewire.c  ****     dpin_release();
 406              		.loc 1 114 5
 407 0024 97000000 		call	dpin_release
 407      E7800000 
 408              	.LVL42:
 115:lioonewire.c  ****     tick_delay(T_I);
 409              		.loc 1 115 5
 410 002c 13056004 		li	a0,70
 411 0030 97000000 		call	delay_1us
 411      E7800000 
 412              	.LVL43:
 116:lioonewire.c  ****     res = dpin_sample();
 413              		.loc 1 116 5
 414              		.loc 1 116 11 is_stmt 0
 415 0038 97000000 		call	dpin_sample
 415      E7800000 
 416              	.LVL44:
 417 0040 2A84     		mv	s0,a0
 418              	.LVL45:
 117:lioonewire.c  ****     tick_delay(T_J);
 419              		.loc 1 117 5 is_stmt 1
 420 0042 1305A019 		li	a0,410
 421 0046 97000000 		call	delay_1us
GAS LISTING C:\Users\abdul\AppData\Local\Temp\ccKJPghk.s 			page 11


 421      E7800000 
 422              	.LVL46:
 118:lioonewire.c  ****     return res;
 423              		.loc 1 118 5
 119:lioonewire.c  **** }
 424              		.loc 1 119 1 is_stmt 0
 425 004e 2285     		mv	a0,s0
 426 0050 B240     		lw	ra,12(sp)
 427              		.cfi_restore 1
 428 0052 2244     		lw	s0,8(sp)
 429              		.cfi_restore 8
 430              	.LVL47:
 431 0054 4101     		addi	sp,sp,16
 432              	.LCFI14:
 433              		.cfi_def_cfa_offset 0
 434 0056 8280     		jr	ra
 435              		.cfi_endproc
 436              	.LFE10:
 438              		.section	.text.lio_read_temp,"ax",@progbits
 439              		.align	1
 440              		.globl	lio_read_temp
 442              	lio_read_temp:
 443              	.LFB11:
 120:lioonewire.c  **** 
 121:lioonewire.c  **** int16_t lio_read_temp(){ // Användbar.
 444              		.loc 1 121 24 is_stmt 1
 445              		.cfi_startproc
 122:lioonewire.c  ****     
 123:lioonewire.c  ****     uint8_t temp_L, temp_H = 0;
 446              		.loc 1 123 5
 447              	.LVL48:
 124:lioonewire.c  ****     
 125:lioonewire.c  ****     if(first_read){
 448              		.loc 1 125 5
 121:lioonewire.c  ****     
 449              		.loc 1 121 24 is_stmt 0
 450 0000 4111     		addi	sp,sp,-16
 451              	.LCFI15:
 452              		.cfi_def_cfa_offset 16
 453 0002 22C4     		sw	s0,8(sp)
 454              		.cfi_offset 8, -8
 455              		.loc 1 125 8
 456 0004 37040000 		lui	s0,%hi(.LANCHOR0)
 457 0008 13040400 		addi	s0,s0,%lo(.LANCHOR0)
 458              		.loc 1 125 7
 459 000c 1C40     		lw	a5,0(s0)
 121:lioonewire.c  ****     
 460              		.loc 1 121 24
 461 000e 06C6     		sw	ra,12(sp)
 462              		.cfi_offset 1, -4
 463              		.loc 1 125 7
 464 0010 A9C7     		beq	a5,zero,.L28
 126:lioonewire.c  ****         lio_OW_touch_reset();
 465              		.loc 1 126 9 is_stmt 1
 466 0012 97000000 		call	lio_OW_touch_reset
 466      E7800000 
 467              	.LVL49:
GAS LISTING C:\Users\abdul\AppData\Local\Temp\ccKJPghk.s 			page 12


 127:lioonewire.c  ****         lio_OW_write_byte(SKIP_ROM);
 468              		.loc 1 127 9
 469 001a 1305C00C 		li	a0,204
 470 001e 97000000 		call	lio_OW_write_byte
 470      E7800000 
 471              	.LVL50:
 128:lioonewire.c  ****         lio_OW_write_byte(WRITE_SCRATCH_PAD);
 472              		.loc 1 128 9
 473 0026 1305E004 		li	a0,78
 474 002a 97000000 		call	lio_OW_write_byte
 474      E7800000 
 475              	.LVL51:
 129:lioonewire.c  ****         lio_OW_write_byte(0xFF);
 476              		.loc 1 129 9
 477 0032 1305F00F 		li	a0,255
 478 0036 97000000 		call	lio_OW_write_byte
 478      E7800000 
 479              	.LVL52:
 130:lioonewire.c  ****         lio_OW_write_byte(0xFF);
 480              		.loc 1 130 9
 481 003e 1305F00F 		li	a0,255
 482 0042 97000000 		call	lio_OW_write_byte
 482      E7800000 
 483              	.LVL53:
 131:lioonewire.c  ****         lio_OW_write_byte(CONFIG_12BIT);
 484              		.loc 1 131 9
 485 004a 1305F007 		li	a0,127
 486 004e 97000000 		call	lio_OW_write_byte
 486      E7800000 
 487              	.LVL54:
 132:lioonewire.c  ****         first_read = 0;
 488              		.loc 1 132 9
 489              		.loc 1 132 20 is_stmt 0
 490 0056 23200400 		sw	zero,0(s0)
 491              	.L28:
 133:lioonewire.c  ****     }
 134:lioonewire.c  ****               
 135:lioonewire.c  ****     lio_OW_touch_reset();
 492              		.loc 1 135 5 is_stmt 1
 493 005a 97000000 		call	lio_OW_touch_reset
 493      E7800000 
 494              	.LVL55:
 136:lioonewire.c  ****     lio_OW_write_byte(SKIP_ROM);
 495              		.loc 1 136 5
 496 0062 1305C00C 		li	a0,204
 497 0066 97000000 		call	lio_OW_write_byte
 497      E7800000 
 498              	.LVL56:
 137:lioonewire.c  ****     lio_OW_write_byte(START_CONVERSION);
 499              		.loc 1 137 5
 500 006e 13054004 		li	a0,68
 501 0072 97000000 		call	lio_OW_write_byte
 501      E7800000 
 502              	.LVL57:
 138:lioonewire.c  ****     for(int i = 1000; i > 0 && lio_OW_read_byte(); i--);
 503              		.loc 1 138 5
 504              	.LBB10:
GAS LISTING C:\Users\abdul\AppData\Local\Temp\ccKJPghk.s 			page 13


 505              		.loc 1 138 9
 506              	.LBE10:
 137:lioonewire.c  ****     lio_OW_write_byte(START_CONVERSION);
 507              		.loc 1 137 5 is_stmt 0
 508 007a 1304803E 		li	s0,1000
 509              	.LVL58:
 510              	.L29:
 511              	.LBB11:
 512              		.loc 1 138 32 discriminator 3
 513 007e 97000000 		call	lio_OW_read_byte
 513      E7800000 
 514              	.LVL59:
 515              		.loc 1 138 29 discriminator 3
 516 0086 19C1     		beq	a0,zero,.L30
 517              		.loc 1 138 56 is_stmt 1 discriminator 4
 518              	.LVL60:
 519 0088 7D14     		addi	s0,s0,-1
 520              	.LVL61:
 521              		.loc 1 138 5 is_stmt 0 discriminator 4
 522 008a 75F8     		bne	s0,zero,.L29
 523              	.LVL62:
 524              	.L30:
 525              	.LBE11:
 139:lioonewire.c  ****     lio_OW_touch_reset();
 526              		.loc 1 139 5 is_stmt 1
 527 008c 97000000 		call	lio_OW_touch_reset
 527      E7800000 
 528              	.LVL63:
 140:lioonewire.c  ****     lio_OW_write_byte(SKIP_ROM);
 529              		.loc 1 140 5
 530 0094 1305C00C 		li	a0,204
 531 0098 97000000 		call	lio_OW_write_byte
 531      E7800000 
 532              	.LVL64:
 141:lioonewire.c  ****     lio_OW_write_byte(READ_SCRATCH_PAD);
 533              		.loc 1 141 5
 534 00a0 1305E00B 		li	a0,190
 535 00a4 97000000 		call	lio_OW_write_byte
 535      E7800000 
 536              	.LVL65:
 142:lioonewire.c  ****     temp_L = lio_OW_read_byte();
 537              		.loc 1 142 5
 538              		.loc 1 142 14 is_stmt 0
 539 00ac 97000000 		call	lio_OW_read_byte
 539      E7800000 
 540              	.LVL66:
 541 00b4 2A84     		mv	s0,a0
 542              	.LVL67:
 143:lioonewire.c  ****     temp_H = lio_OW_read_byte();
 543              		.loc 1 143 5 is_stmt 1
 544              		.loc 1 143 14 is_stmt 0
 545 00b6 97000000 		call	lio_OW_read_byte
 545      E7800000 
 546              	.LVL68:
 144:lioonewire.c  ****     return (int16_t) (((temp_H << 8) & 0xFF00) | temp_L);
 547              		.loc 1 144 5 is_stmt 1
 548              		.loc 1 144 32 is_stmt 0
GAS LISTING C:\Users\abdul\AppData\Local\Temp\ccKJPghk.s 			page 14


 549 00be 2205     		slli	a0,a0,8
 550              	.LVL69:
 551              		.loc 1 144 12
 552 00c0 418D     		or	a0,a0,s0
 145:lioonewire.c  **** }
 553              		.loc 1 145 1
 554 00c2 B240     		lw	ra,12(sp)
 555              		.cfi_restore 1
 556 00c4 2244     		lw	s0,8(sp)
 557              		.cfi_restore 8
 558              	.LVL70:
 559 00c6 4205     		slli	a0,a0,16
 560 00c8 4185     		srai	a0,a0,16
 561 00ca 4101     		addi	sp,sp,16
 562              	.LCFI16:
 563              		.cfi_def_cfa_offset 0
 564 00cc 8280     		jr	ra
 565              		.cfi_endproc
 566              	.LFE11:
 568              		.globl	first_read
 569              		.section	.sdata.first_read,"aw"
 570              		.align	2
 571              		.set	.LANCHOR0,. + 0
 574              	first_read:
 575 0000 01000000 		.word	1
 576              		.text
 577              	.Letext0:
 578              		.file 2 "c:\\users\\abdul\\onedrive\\documents\\toolchain-gd32v-v202-win\\compiler\\riscv64-unknow
 579              		.file 3 "c:\\users\\abdul\\onedrive\\documents\\toolchain-gd32v-v202-win\\compiler\\riscv64-unknow
 580              		.file 4 "./../../firmware/GD32VF103_standard_peripheral/system_gd32vf103.h"
 581              		.file 5 "./delay.h"
 582              		.file 6 "./../../firmware/GD32VF103_standard_peripheral/Include/gd32vf103_rcu.h"
 583              		.file 7 "./../../firmware/GD32VF103_standard_peripheral/Include/gd32vf103_gpio.h"
GAS LISTING C:\Users\abdul\AppData\Local\Temp\ccKJPghk.s 			page 15

