GAS LISTING C:\Users\abdul\AppData\Local\Temp\ccS6Whod.s 			page 1


   1              		.file	"lioonewire.c"
   2              		.option nopic
   3              		.attribute arch, "rv32i2p0_m2p0_a2p0_c2p0"
   4              		.attribute unaligned_access, 0
   5              		.attribute stack_align, 16
   6              		.text
   7              	.Ltext0:
   8              		.cfi_sections	.debug_frame
   9              		.section	.text.dpin_drive,"ax",@progbits
  10              		.align	1
  11              		.globl	dpin_drive
  13              	dpin_drive:
  14              	.LFB2:
  15              		.file 1 "lioonewire.c"
   1:lioonewire.c  **** /*
   2:lioonewire.c  ****  * File:   onewire.c
   3:lioonewire.c  ****  * Author: remahl
   4:lioonewire.c  ****  *
   5:lioonewire.c  ****  * Created on September 19, 2019, 11:40 AM
   6:lioonewire.c  ****  */
   7:lioonewire.c  **** 
   8:lioonewire.c  **** #include <stdint.h>
   9:lioonewire.c  **** #include "lioonewire.h"
  10:lioonewire.c  **** #include "gd32vf103.h"
  11:lioonewire.c  **** #include "systick.h"
  12:lioonewire.c  **** 
  13:lioonewire.c  **** #define SKIP_ROM            0xCC
  14:lioonewire.c  **** #define WRITE_SCRATCH_PAD   0x4E
  15:lioonewire.c  **** #define READ_SCRATCH_PAD    0xBE
  16:lioonewire.c  **** #define START_CONVERSION    0x44
  17:lioonewire.c  **** #define COPY_SCRATCHPAD     0x48
  18:lioonewire.c  **** #define RECALL_EEPROM       0xB8
  19:lioonewire.c  **** #define READ_POWER_SUPPLY   0xB4
  20:lioonewire.c  **** 
  21:lioonewire.c  **** #define CONFIG_9BIT         0x1F
  22:lioonewire.c  **** #define CONFIG_10BIT        0x3F
  23:lioonewire.c  **** #define CONFIG_11BIT        0x5F
  24:lioonewire.c  **** #define CONFIG_12BIT        0x7F
  25:lioonewire.c  **** 
  26:lioonewire.c  **** #define T_A 6
  27:lioonewire.c  **** #define T_B 64
  28:lioonewire.c  **** #define T_C 60
  29:lioonewire.c  **** #define T_D 10
  30:lioonewire.c  **** #define T_E 9
  31:lioonewire.c  **** #define T_F 55
  32:lioonewire.c  **** #define T_G 0
  33:lioonewire.c  **** #define T_H 480
  34:lioonewire.c  **** #define T_I 70
  35:lioonewire.c  **** #define T_J 410
  36:lioonewire.c  **** 
  37:lioonewire.c  **** #define DPIN  GPIO_PIN_5   
  38:lioonewire.c  **** #define DPORT GPIOB
  39:lioonewire.c  **** 
  40:lioonewire.c  **** 
  41:lioonewire.c  **** 
  42:lioonewire.c  **** 
  43:lioonewire.c  **** void dpin_drive(){
GAS LISTING C:\Users\abdul\AppData\Local\Temp\ccS6Whod.s 			page 2


  16              		.loc 1 43 18
  17              		.cfi_startproc
  44:lioonewire.c  ****     gpio_bit_reset(DPORT, DPIN);
  18              		.loc 1 44 5
  19 0000 37150140 		li	a0,1073811456
  20 0004 93050002 		li	a1,32
  21 0008 130505C0 		addi	a0,a0,-1024
  22 000c 17030000 		tail	gpio_bit_reset
  22      67000300 
  23              	.LVL0:
  24              		.cfi_endproc
  25              	.LFE2:
  27              		.section	.text.dpin_release,"ax",@progbits
  28              		.align	1
  29              		.globl	dpin_release
  31              	dpin_release:
  32              	.LFB3:
  45:lioonewire.c  **** }
  46:lioonewire.c  **** void dpin_release(){
  33              		.loc 1 46 20
  34              		.cfi_startproc
  47:lioonewire.c  ****     gpio_bit_set(DPORT, DPIN);
  35              		.loc 1 47 5
  36 0000 37150140 		li	a0,1073811456
  37 0004 93050002 		li	a1,32
  38 0008 130505C0 		addi	a0,a0,-1024
  39 000c 17030000 		tail	gpio_bit_set
  39      67000300 
  40              	.LVL1:
  41              		.cfi_endproc
  42              	.LFE3:
  44              		.section	.text.dpin_sample,"ax",@progbits
  45              		.align	1
  46              		.globl	dpin_sample
  48              	dpin_sample:
  49              	.LFB4:
  48:lioonewire.c  **** }
  49:lioonewire.c  **** 
  50:lioonewire.c  **** uint8_t dpin_sample(){
  50              		.loc 1 50 22
  51              		.cfi_startproc
  51:lioonewire.c  ****     return gpio_input_bit_get(DPORT, DPIN);
  52              		.loc 1 51 5
  53              		.loc 1 51 12 is_stmt 0
  54 0000 37150140 		li	a0,1073811456
  50:lioonewire.c  ****     return gpio_input_bit_get(DPORT, DPIN);
  55              		.loc 1 50 22
  56 0004 4111     		addi	sp,sp,-16
  57              	.LCFI0:
  58              		.cfi_def_cfa_offset 16
  59              		.loc 1 51 12
  60 0006 93050002 		li	a1,32
  61 000a 130505C0 		addi	a0,a0,-1024
  50:lioonewire.c  ****     return gpio_input_bit_get(DPORT, DPIN);
  62              		.loc 1 50 22
  63 000e 06C6     		sw	ra,12(sp)
  64              		.cfi_offset 1, -4
GAS LISTING C:\Users\abdul\AppData\Local\Temp\ccS6Whod.s 			page 3


  65              		.loc 1 51 12
  66 0010 97000000 		call	gpio_input_bit_get
  66      E7800000 
  67              	.LVL2:
  52:lioonewire.c  **** }
  68              		.loc 1 52 1
  69 0018 B240     		lw	ra,12(sp)
  70              		.cfi_restore 1
  71 001a 1375F50F 		andi	a0,a0,0xff
  72 001e 4101     		addi	sp,sp,16
  73              	.LCFI1:
  74              		.cfi_def_cfa_offset 0
  75 0020 8280     		jr	ra
  76              		.cfi_endproc
  77              	.LFE4:
  79              		.section	.text.lio_init_OW,"ax",@progbits
  80              		.align	1
  81              		.globl	lio_init_OW
  83              	lio_init_OW:
  84              	.LFB5:
  53:lioonewire.c  **** 
  54:lioonewire.c  **** 
  55:lioonewire.c  **** int first_read = 1;
  56:lioonewire.c  **** 
  57:lioonewire.c  **** 
  58:lioonewire.c  **** void lio_init_OW(){
  85              		.loc 1 58 19 is_stmt 1
  86              		.cfi_startproc
  59:lioonewire.c  ****     rcu_periph_clock_enable(RCU_GPIOB);
  87              		.loc 1 59 5
  58:lioonewire.c  ****     rcu_periph_clock_enable(RCU_GPIOB);
  88              		.loc 1 58 19 is_stmt 0
  89 0000 4111     		addi	sp,sp,-16
  90              	.LCFI2:
  91              		.cfi_def_cfa_offset 16
  92              		.loc 1 59 5
  93 0002 13053060 		li	a0,1539
  58:lioonewire.c  ****     rcu_periph_clock_enable(RCU_GPIOB);
  94              		.loc 1 58 19
  95 0006 06C6     		sw	ra,12(sp)
  96              		.cfi_offset 1, -4
  97              		.loc 1 59 5
  98 0008 97000000 		call	rcu_periph_clock_enable
  98      E7800000 
  99              	.LVL3:
  60:lioonewire.c  ****     gpio_init(DPORT, GPIO_MODE_OUT_OD, GPIO_OSPEED_50MHZ, DPIN);
 100              		.loc 1 60 5 is_stmt 1
  61:lioonewire.c  **** }
 101              		.loc 1 61 1 is_stmt 0
 102 0010 B240     		lw	ra,12(sp)
 103              		.cfi_restore 1
  60:lioonewire.c  ****     gpio_init(DPORT, GPIO_MODE_OUT_OD, GPIO_OSPEED_50MHZ, DPIN);
 104              		.loc 1 60 5
 105 0012 37150140 		li	a0,1073811456
 106              		.loc 1 61 1
  60:lioonewire.c  ****     gpio_init(DPORT, GPIO_MODE_OUT_OD, GPIO_OSPEED_50MHZ, DPIN);
 107              		.loc 1 60 5
GAS LISTING C:\Users\abdul\AppData\Local\Temp\ccS6Whod.s 			page 4


 108 0016 93060002 		li	a3,32
 109 001a 0D46     		li	a2,3
 110 001c D145     		li	a1,20
 111 001e 130505C0 		addi	a0,a0,-1024
 112              		.loc 1 61 1
 113 0022 4101     		addi	sp,sp,16
 114              	.LCFI3:
 115              		.cfi_def_cfa_offset 0
  60:lioonewire.c  ****     gpio_init(DPORT, GPIO_MODE_OUT_OD, GPIO_OSPEED_50MHZ, DPIN);
 116              		.loc 1 60 5
 117 0024 17030000 		tail	gpio_init
 117      67000300 
 118              	.LVL4:
 119              		.cfi_endproc
 120              	.LFE5:
 122              		.section	.text.lio_OW_write_bit,"ax",@progbits
 123              		.align	1
 124              		.globl	lio_OW_write_bit
 126              	lio_OW_write_bit:
 127              	.LFB6:
  62:lioonewire.c  **** 
  63:lioonewire.c  **** 
  64:lioonewire.c  **** void lio_OW_write_bit(uint8_t val){
 128              		.loc 1 64 35 is_stmt 1
 129              		.cfi_startproc
 130              	.LVL5:
  65:lioonewire.c  ****     if(val){
 131              		.loc 1 65 5
  64:lioonewire.c  ****     if(val){
 132              		.loc 1 64 35 is_stmt 0
 133 0000 4111     		addi	sp,sp,-16
 134              	.LCFI4:
 135              		.cfi_def_cfa_offset 16
 136 0002 06C6     		sw	ra,12(sp)
 137              		.cfi_offset 1, -4
 138              		.loc 1 65 7
 139 0004 15C5     		beq	a0,zero,.L8
 140              	.LVL6:
 141              	.LBB4:
 142              	.LBB5:
  66:lioonewire.c  ****         dpin_drive();
 143              		.loc 1 66 9 is_stmt 1
 144 0006 97000000 		call	dpin_drive
 144      E7800000 
 145              	.LVL7:
  67:lioonewire.c  ****         tick_delay(T_A);
 146              		.loc 1 67 9
 147 000e 1945     		li	a0,6
 148 0010 97000000 		call	delay_1us
 148      E7800000 
 149              	.LVL8:
  68:lioonewire.c  ****         dpin_release();
 150              		.loc 1 68 9
 151 0018 97000000 		call	dpin_release
 151      E7800000 
 152              	.LVL9:
  69:lioonewire.c  ****         tick_delay(T_B);
GAS LISTING C:\Users\abdul\AppData\Local\Temp\ccS6Whod.s 			page 5


 153              		.loc 1 69 9
 154 0020 13050004 		li	a0,64
 155              	.L10:
 156              	.LBE5:
 157              	.LBE4:
  70:lioonewire.c  ****     }
  71:lioonewire.c  ****     else{
  72:lioonewire.c  ****         dpin_drive();
  73:lioonewire.c  ****         tick_delay(T_C);
  74:lioonewire.c  ****         dpin_release();
  75:lioonewire.c  ****         tick_delay(T_D);
  76:lioonewire.c  ****     }
  77:lioonewire.c  **** }
 158              		.loc 1 77 1 is_stmt 0
 159 0024 B240     		lw	ra,12(sp)
 160              		.cfi_remember_state
 161              		.cfi_restore 1
 162 0026 4101     		addi	sp,sp,16
 163              	.LCFI5:
 164              		.cfi_def_cfa_offset 0
  75:lioonewire.c  ****     }
 165              		.loc 1 75 9
 166 0028 17030000 		tail	delay_1us
 166      67000300 
 167              	.LVL10:
 168              	.L8:
 169              	.LCFI6:
 170              		.cfi_restore_state
  72:lioonewire.c  ****         tick_delay(T_C);
 171              		.loc 1 72 9 is_stmt 1
 172 0030 97000000 		call	dpin_drive
 172      E7800000 
 173              	.LVL11:
  73:lioonewire.c  ****         dpin_release();
 174              		.loc 1 73 9
 175 0038 1305C003 		li	a0,60
 176 003c 97000000 		call	delay_1us
 176      E7800000 
 177              	.LVL12:
  74:lioonewire.c  ****         tick_delay(T_D);
 178              		.loc 1 74 9
 179 0044 97000000 		call	dpin_release
 179      E7800000 
 180              	.LVL13:
  75:lioonewire.c  ****     }
 181              		.loc 1 75 9
 182 004c 2945     		li	a0,10
 183 004e D9BF     		j	.L10
 184              		.cfi_endproc
 185              	.LFE6:
 187              		.section	.text.lio_OW_read_bit,"ax",@progbits
 188              		.align	1
 189              		.globl	lio_OW_read_bit
 191              	lio_OW_read_bit:
 192              	.LFB7:
  78:lioonewire.c  **** 
  79:lioonewire.c  **** uint8_t lio_OW_read_bit(){
GAS LISTING C:\Users\abdul\AppData\Local\Temp\ccS6Whod.s 			page 6


 193              		.loc 1 79 26
 194              		.cfi_startproc
  80:lioonewire.c  ****     uint8_t res = 0;
 195              		.loc 1 80 5
 196              	.LVL14:
  81:lioonewire.c  ****     dpin_drive();
 197              		.loc 1 81 5
  79:lioonewire.c  ****     uint8_t res = 0;
 198              		.loc 1 79 26 is_stmt 0
 199 0000 4111     		addi	sp,sp,-16
 200              	.LCFI7:
 201              		.cfi_def_cfa_offset 16
 202 0002 06C6     		sw	ra,12(sp)
 203 0004 22C4     		sw	s0,8(sp)
 204              		.cfi_offset 1, -4
 205              		.cfi_offset 8, -8
 206              		.loc 1 81 5
 207 0006 97000000 		call	dpin_drive
 207      E7800000 
 208              	.LVL15:
  82:lioonewire.c  ****     tick_delay(T_A);
 209              		.loc 1 82 5 is_stmt 1
 210 000e 1945     		li	a0,6
 211 0010 97000000 		call	delay_1us
 211      E7800000 
 212              	.LVL16:
  83:lioonewire.c  ****     dpin_release();
 213              		.loc 1 83 5
 214 0018 97000000 		call	dpin_release
 214      E7800000 
 215              	.LVL17:
  84:lioonewire.c  ****     tick_delay(T_E);
 216              		.loc 1 84 5
 217 0020 2545     		li	a0,9
 218 0022 97000000 		call	delay_1us
 218      E7800000 
 219              	.LVL18:
  85:lioonewire.c  ****     res = dpin_sample();
 220              		.loc 1 85 5
 221              		.loc 1 85 11 is_stmt 0
 222 002a 97000000 		call	dpin_sample
 222      E7800000 
 223              	.LVL19:
 224 0032 2A84     		mv	s0,a0
 225              	.LVL20:
  86:lioonewire.c  ****     tick_delay(T_F);
 226              		.loc 1 86 5 is_stmt 1
 227 0034 13057003 		li	a0,55
 228 0038 97000000 		call	delay_1us
 228      E7800000 
 229              	.LVL21:
  87:lioonewire.c  ****     return res;
 230              		.loc 1 87 5
  88:lioonewire.c  **** }
 231              		.loc 1 88 1 is_stmt 0
 232 0040 2285     		mv	a0,s0
 233 0042 B240     		lw	ra,12(sp)
GAS LISTING C:\Users\abdul\AppData\Local\Temp\ccS6Whod.s 			page 7


 234              		.cfi_restore 1
 235 0044 2244     		lw	s0,8(sp)
 236              		.cfi_restore 8
 237              	.LVL22:
 238 0046 4101     		addi	sp,sp,16
 239              	.LCFI8:
 240              		.cfi_def_cfa_offset 0
 241 0048 8280     		jr	ra
 242              		.cfi_endproc
 243              	.LFE7:
 245              		.section	.text.lio_OW_read_byte,"ax",@progbits
 246              		.align	1
 247              		.globl	lio_OW_read_byte
 249              	lio_OW_read_byte:
 250              	.LFB8:
  89:lioonewire.c  **** 
  90:lioonewire.c  **** uint8_t lio_OW_read_byte()
  91:lioonewire.c  **** {
 251              		.loc 1 91 1 is_stmt 1
 252              		.cfi_startproc
  92:lioonewire.c  ****     uint8_t result=0;
 253              		.loc 1 92 5
 254              	.LVL23:
  93:lioonewire.c  **** 
  94:lioonewire.c  ****     for (uint8_t i = 0; i < 8; i++){
 255              		.loc 1 94 5
 256              	.LBB6:
 257              		.loc 1 94 10
 258              	.LBE6:
  91:lioonewire.c  ****     uint8_t result=0;
 259              		.loc 1 91 1 is_stmt 0
 260 0000 4111     		addi	sp,sp,-16
 261              	.LCFI9:
 262              		.cfi_def_cfa_offset 16
 263 0002 22C4     		sw	s0,8(sp)
 264 0004 26C2     		sw	s1,4(sp)
 265 0006 06C6     		sw	ra,12(sp)
 266              		.cfi_offset 8, -8
 267              		.cfi_offset 9, -12
 268              		.cfi_offset 1, -4
  91:lioonewire.c  ****     uint8_t result=0;
 269              		.loc 1 91 1
 270 0008 A144     		li	s1,8
  92:lioonewire.c  ****     uint8_t result=0;
 271              		.loc 1 92 13
 272 000a 0144     		li	s0,0
 273              	.LVL24:
 274              	.L15:
 275              	.LBB7:
  95:lioonewire.c  ****             result >>= 1;
 276              		.loc 1 95 13 is_stmt 1
 277              		.loc 1 95 20 is_stmt 0
 278 000c 0580     		srli	s0,s0,1
 279              	.LVL25:
  96:lioonewire.c  **** 
  97:lioonewire.c  ****             if (lio_OW_read_bit())result |= 0x80;
 280              		.loc 1 97 13 is_stmt 1
GAS LISTING C:\Users\abdul\AppData\Local\Temp\ccS6Whod.s 			page 8


 281              		.loc 1 97 17 is_stmt 0
 282 000e 97000000 		call	lio_OW_read_bit
 282      E7800000 
 283              	.LVL26:
 284              		.loc 1 97 16
 285 0016 09C5     		beq	a0,zero,.L14
 286              		.loc 1 97 35 is_stmt 1 discriminator 1
 287              		.loc 1 97 42 is_stmt 0 discriminator 1
 288 0018 136404F8 		ori	s0,s0,-128
 289              	.LVL27:
 290 001c 1374F40F 		andi	s0,s0,0xff
 291              	.LVL28:
 292              	.L14:
 293 0020 FD14     		addi	s1,s1,-1
 294              	.LVL29:
 295 0022 93F4F40F 		andi	s1,s1,0xff
  94:lioonewire.c  ****             result >>= 1;
 296              		.loc 1 94 5 discriminator 2
 297 0026 FDF0     		bne	s1,zero,.L15
 298              	.LBE7:
  98:lioonewire.c  ****     }
  99:lioonewire.c  ****     return result;
 299              		.loc 1 99 5 is_stmt 1
 100:lioonewire.c  **** }
 300              		.loc 1 100 1 is_stmt 0
 301 0028 2285     		mv	a0,s0
 302 002a B240     		lw	ra,12(sp)
 303              		.cfi_restore 1
 304 002c 2244     		lw	s0,8(sp)
 305              		.cfi_restore 8
 306              	.LVL30:
 307 002e 9244     		lw	s1,4(sp)
 308              		.cfi_restore 9
 309 0030 4101     		addi	sp,sp,16
 310              	.LCFI10:
 311              		.cfi_def_cfa_offset 0
 312 0032 8280     		jr	ra
 313              		.cfi_endproc
 314              	.LFE8:
 316              		.section	.text.lio_OW_write_byte,"ax",@progbits
 317              		.align	1
 318              		.globl	lio_OW_write_byte
 320              	lio_OW_write_byte:
 321              	.LFB9:
 101:lioonewire.c  **** 
 102:lioonewire.c  **** void lio_OW_write_byte(uint8_t data){
 322              		.loc 1 102 37 is_stmt 1
 323              		.cfi_startproc
 324              	.LVL31:
 103:lioonewire.c  ****     for(int i = 0; i < 8; i++){
 325              		.loc 1 103 5
 326              	.LBB8:
 327              		.loc 1 103 9
 328              	.LBE8:
 102:lioonewire.c  ****     for(int i = 0; i < 8; i++){
 329              		.loc 1 102 37 is_stmt 0
 330 0000 4111     		addi	sp,sp,-16
GAS LISTING C:\Users\abdul\AppData\Local\Temp\ccS6Whod.s 			page 9


 331              	.LCFI11:
 332              		.cfi_def_cfa_offset 16
 333 0002 22C4     		sw	s0,8(sp)
 334 0004 26C2     		sw	s1,4(sp)
 335 0006 06C6     		sw	ra,12(sp)
 336              		.cfi_offset 8, -8
 337              		.cfi_offset 9, -12
 338              		.cfi_offset 1, -4
 102:lioonewire.c  ****     for(int i = 0; i < 8; i++){
 339              		.loc 1 102 37
 340 0008 AA84     		mv	s1,a0
 341              	.LVL32:
 342 000a 2144     		li	s0,8
 343              	.LVL33:
 344              	.L22:
 345              	.LBB9:
 104:lioonewire.c  ****         lio_OW_write_bit(data & 0x01);
 346              		.loc 1 104 9 is_stmt 1 discriminator 3
 347 000c 13F51400 		andi	a0,s1,1
 348 0010 7D14     		addi	s0,s0,-1
 349              	.LVL34:
 350 0012 97000000 		call	lio_OW_write_bit
 350      E7800000 
 351              	.LVL35:
 105:lioonewire.c  ****         data >>= 1;
 352              		.loc 1 105 9 discriminator 3
 353              		.loc 1 105 14 is_stmt 0 discriminator 3
 354 001a 8580     		srli	s1,s1,1
 355              	.LVL36:
 103:lioonewire.c  ****         lio_OW_write_bit(data & 0x01);
 356              		.loc 1 103 5 discriminator 3
 357 001c 65F8     		bne	s0,zero,.L22
 358              	.LBE9:
 106:lioonewire.c  ****     }
 107:lioonewire.c  **** }
 359              		.loc 1 107 1
 360 001e B240     		lw	ra,12(sp)
 361              		.cfi_restore 1
 362 0020 2244     		lw	s0,8(sp)
 363              		.cfi_restore 8
 364 0022 9244     		lw	s1,4(sp)
 365              		.cfi_restore 9
 366              	.LVL37:
 367 0024 4101     		addi	sp,sp,16
 368              	.LCFI12:
 369              		.cfi_def_cfa_offset 0
 370 0026 8280     		jr	ra
 371              		.cfi_endproc
 372              	.LFE9:
 374              		.section	.text.lio_OW_touch_reset,"ax",@progbits
 375              		.align	1
 376              		.globl	lio_OW_touch_reset
 378              	lio_OW_touch_reset:
 379              	.LFB10:
 108:lioonewire.c  **** 
 109:lioonewire.c  **** uint8_t lio_OW_touch_reset(void)
 110:lioonewire.c  **** {
GAS LISTING C:\Users\abdul\AppData\Local\Temp\ccS6Whod.s 			page 10


 380              		.loc 1 110 1 is_stmt 1
 381              		.cfi_startproc
 111:lioonewire.c  ****     uint8_t res = 0;
 382              		.loc 1 111 5
 383              	.LVL38:
 112:lioonewire.c  ****     tick_delay(T_G);
 384              		.loc 1 112 5
 110:lioonewire.c  ****     uint8_t res = 0;
 385              		.loc 1 110 1 is_stmt 0
 386 0000 4111     		addi	sp,sp,-16
 387              	.LCFI13:
 388              		.cfi_def_cfa_offset 16
 389              		.loc 1 112 5
 390 0002 0145     		li	a0,0
 110:lioonewire.c  ****     uint8_t res = 0;
 391              		.loc 1 110 1
 392 0004 06C6     		sw	ra,12(sp)
 393 0006 22C4     		sw	s0,8(sp)
 394              		.cfi_offset 1, -4
 395              		.cfi_offset 8, -8
 396              		.loc 1 112 5
 397 0008 97000000 		call	delay_1us
 397      E7800000 
 398              	.LVL39:
 113:lioonewire.c  ****     dpin_drive();
 399              		.loc 1 113 5 is_stmt 1
 400 0010 97000000 		call	dpin_drive
 400      E7800000 
 401              	.LVL40:
 114:lioonewire.c  ****     tick_delay(T_H);
 402              		.loc 1 114 5
 403 0018 1305001E 		li	a0,480
 404 001c 97000000 		call	delay_1us
 404      E7800000 
 405              	.LVL41:
 115:lioonewire.c  ****     dpin_release();
 406              		.loc 1 115 5
 407 0024 97000000 		call	dpin_release
 407      E7800000 
 408              	.LVL42:
 116:lioonewire.c  ****     tick_delay(T_I);
 409              		.loc 1 116 5
 410 002c 13056004 		li	a0,70
 411 0030 97000000 		call	delay_1us
 411      E7800000 
 412              	.LVL43:
 117:lioonewire.c  ****     res = dpin_sample();
 413              		.loc 1 117 5
 414              		.loc 1 117 11 is_stmt 0
 415 0038 97000000 		call	dpin_sample
 415      E7800000 
 416              	.LVL44:
 417 0040 2A84     		mv	s0,a0
 418              	.LVL45:
 118:lioonewire.c  ****     tick_delay(T_J);
 419              		.loc 1 118 5 is_stmt 1
 420 0042 1305A019 		li	a0,410
GAS LISTING C:\Users\abdul\AppData\Local\Temp\ccS6Whod.s 			page 11


 421 0046 97000000 		call	delay_1us
 421      E7800000 
 422              	.LVL46:
 119:lioonewire.c  ****     return res;
 423              		.loc 1 119 5
 120:lioonewire.c  **** }
 424              		.loc 1 120 1 is_stmt 0
 425 004e 2285     		mv	a0,s0
 426 0050 B240     		lw	ra,12(sp)
 427              		.cfi_restore 1
 428 0052 2244     		lw	s0,8(sp)
 429              		.cfi_restore 8
 430              	.LVL47:
 431 0054 4101     		addi	sp,sp,16
 432              	.LCFI14:
 433              		.cfi_def_cfa_offset 0
 434 0056 8280     		jr	ra
 435              		.cfi_endproc
 436              	.LFE10:
 438              		.section	.text.lio_read_temp,"ax",@progbits
 439              		.align	1
 440              		.globl	lio_read_temp
 442              	lio_read_temp:
 443              	.LFB11:
 121:lioonewire.c  **** 
 122:lioonewire.c  **** int16_t lio_read_temp(){ // Användbar.
 444              		.loc 1 122 24 is_stmt 1
 445              		.cfi_startproc
 123:lioonewire.c  ****     
 124:lioonewire.c  ****     uint8_t temp_L, temp_H = 0;
 446              		.loc 1 124 5
 447              	.LVL48:
 125:lioonewire.c  ****     
 126:lioonewire.c  ****     if(first_read){
 448              		.loc 1 126 5
 122:lioonewire.c  ****     
 449              		.loc 1 122 24 is_stmt 0
 450 0000 4111     		addi	sp,sp,-16
 451              	.LCFI15:
 452              		.cfi_def_cfa_offset 16
 453 0002 22C4     		sw	s0,8(sp)
 454              		.cfi_offset 8, -8
 455              		.loc 1 126 8
 456 0004 37040000 		lui	s0,%hi(.LANCHOR0)
 457 0008 13040400 		addi	s0,s0,%lo(.LANCHOR0)
 458              		.loc 1 126 7
 459 000c 1C40     		lw	a5,0(s0)
 122:lioonewire.c  ****     
 460              		.loc 1 122 24
 461 000e 06C6     		sw	ra,12(sp)
 462              		.cfi_offset 1, -4
 463              		.loc 1 126 7
 464 0010 A9C7     		beq	a5,zero,.L28
 127:lioonewire.c  ****         lio_OW_touch_reset();
 465              		.loc 1 127 9 is_stmt 1
 466 0012 97000000 		call	lio_OW_touch_reset
 466      E7800000 
GAS LISTING C:\Users\abdul\AppData\Local\Temp\ccS6Whod.s 			page 12


 467              	.LVL49:
 128:lioonewire.c  ****         lio_OW_write_byte(SKIP_ROM);
 468              		.loc 1 128 9
 469 001a 1305C00C 		li	a0,204
 470 001e 97000000 		call	lio_OW_write_byte
 470      E7800000 
 471              	.LVL50:
 129:lioonewire.c  ****         lio_OW_write_byte(WRITE_SCRATCH_PAD);
 472              		.loc 1 129 9
 473 0026 1305E004 		li	a0,78
 474 002a 97000000 		call	lio_OW_write_byte
 474      E7800000 
 475              	.LVL51:
 130:lioonewire.c  ****         lio_OW_write_byte(0xFF);
 476              		.loc 1 130 9
 477 0032 1305F00F 		li	a0,255
 478 0036 97000000 		call	lio_OW_write_byte
 478      E7800000 
 479              	.LVL52:
 131:lioonewire.c  ****         lio_OW_write_byte(0xFF);
 480              		.loc 1 131 9
 481 003e 1305F00F 		li	a0,255
 482 0042 97000000 		call	lio_OW_write_byte
 482      E7800000 
 483              	.LVL53:
 132:lioonewire.c  ****         lio_OW_write_byte(CONFIG_12BIT);
 484              		.loc 1 132 9
 485 004a 1305F007 		li	a0,127
 486 004e 97000000 		call	lio_OW_write_byte
 486      E7800000 
 487              	.LVL54:
 133:lioonewire.c  ****         first_read = 0;
 488              		.loc 1 133 9
 489              		.loc 1 133 20 is_stmt 0
 490 0056 23200400 		sw	zero,0(s0)
 491              	.L28:
 134:lioonewire.c  ****     }
 135:lioonewire.c  ****               
 136:lioonewire.c  ****     lio_OW_touch_reset();
 492              		.loc 1 136 5 is_stmt 1
 493 005a 97000000 		call	lio_OW_touch_reset
 493      E7800000 
 494              	.LVL55:
 137:lioonewire.c  ****     lio_OW_write_byte(SKIP_ROM);
 495              		.loc 1 137 5
 496 0062 1305C00C 		li	a0,204
 497 0066 97000000 		call	lio_OW_write_byte
 497      E7800000 
 498              	.LVL56:
 138:lioonewire.c  ****     lio_OW_write_byte(START_CONVERSION);
 499              		.loc 1 138 5
 500 006e 13054004 		li	a0,68
 501 0072 97000000 		call	lio_OW_write_byte
 501      E7800000 
 502              	.LVL57:
 139:lioonewire.c  ****     delay_1ms(750); 
 503              		.loc 1 139 5
GAS LISTING C:\Users\abdul\AppData\Local\Temp\ccS6Whod.s 			page 13


 504 007a 1305E02E 		li	a0,750
 505 007e 97000000 		call	delay_1ms
 505      E7800000 
 506              	.LVL58:
 140:lioonewire.c  ****     lio_OW_touch_reset();
 507              		.loc 1 140 5
 508 0086 97000000 		call	lio_OW_touch_reset
 508      E7800000 
 509              	.LVL59:
 141:lioonewire.c  ****     lio_OW_write_byte(SKIP_ROM);
 510              		.loc 1 141 5
 511 008e 1305C00C 		li	a0,204
 512 0092 97000000 		call	lio_OW_write_byte
 512      E7800000 
 513              	.LVL60:
 142:lioonewire.c  ****     lio_OW_write_byte(READ_SCRATCH_PAD);
 514              		.loc 1 142 5
 515 009a 1305E00B 		li	a0,190
 516 009e 97000000 		call	lio_OW_write_byte
 516      E7800000 
 517              	.LVL61:
 143:lioonewire.c  ****     temp_L = lio_OW_read_byte();
 518              		.loc 1 143 5
 519              		.loc 1 143 14 is_stmt 0
 520 00a6 97000000 		call	lio_OW_read_byte
 520      E7800000 
 521              	.LVL62:
 522 00ae 2A84     		mv	s0,a0
 523              	.LVL63:
 144:lioonewire.c  ****     temp_H = lio_OW_read_byte();
 524              		.loc 1 144 5 is_stmt 1
 525              		.loc 1 144 14 is_stmt 0
 526 00b0 97000000 		call	lio_OW_read_byte
 526      E7800000 
 527              	.LVL64:
 145:lioonewire.c  ****     return (int16_t) (((temp_H << 8) & 0xFF00) | temp_L);
 528              		.loc 1 145 5 is_stmt 1
 529              		.loc 1 145 32 is_stmt 0
 530 00b8 2205     		slli	a0,a0,8
 531              	.LVL65:
 532              		.loc 1 145 12
 533 00ba 418D     		or	a0,a0,s0
 146:lioonewire.c  **** }...
 534              		.loc 1 146 1
 535 00bc B240     		lw	ra,12(sp)
 536              		.cfi_restore 1
 537 00be 2244     		lw	s0,8(sp)
 538              		.cfi_restore 8
 539              	.LVL66:
 540 00c0 4205     		slli	a0,a0,16
 541 00c2 4185     		srai	a0,a0,16
 542 00c4 4101     		addi	sp,sp,16
 543              	.LCFI16:
 544              		.cfi_def_cfa_offset 0
 545 00c6 8280     		jr	ra
 546              		.cfi_endproc
 547              	.LFE11:
GAS LISTING C:\Users\abdul\AppData\Local\Temp\ccS6Whod.s 			page 14


 549              		.globl	first_read
 550              		.section	.sdata.first_read,"aw"
 551              		.align	2
 552              		.set	.LANCHOR0,. + 0
 555              	first_read:
 556 0000 01000000 		.word	1
 557              		.text
 558              	.Letext0:
 559              		.file 2 "c:\\users\\abdul\\onedrive\\documents\\toolchain-gd32v-v202-win\\compiler\\riscv64-unknow
 560              		.file 3 "c:\\users\\abdul\\onedrive\\documents\\toolchain-gd32v-v202-win\\compiler\\riscv64-unknow
 561              		.file 4 "./../../firmware/GD32VF103_standard_peripheral/system_gd32vf103.h"
 562              		.file 5 "systick.h"
 563              		.file 6 "./../../firmware/GD32VF103_standard_peripheral/Include/gd32vf103_rcu.h"
 564              		.file 7 "./../../firmware/GD32VF103_standard_peripheral/Include/gd32vf103_gpio.h"
GAS LISTING C:\Users\abdul\AppData\Local\Temp\ccS6Whod.s 			page 15


DEFINED SYMBOLS
                            *ABS*:0000000000000000 lioonewire.c
C:\Users\abdul\AppData\Local\Temp\ccS6Whod.s:13     .text.dpin_drive:0000000000000000 dpin_drive
C:\Users\abdul\AppData\Local\Temp\ccS6Whod.s:17     .text.dpin_drive:0000000000000000 .L0 
C:\Users\abdul\AppData\Local\Temp\ccS6Whod.s:18     .text.dpin_drive:0000000000000000 .L0 
C:\Users\abdul\AppData\Local\Temp\ccS6Whod.s:19     .text.dpin_drive:0000000000000000 .L0 
C:\Users\abdul\AppData\Local\Temp\ccS6Whod.s:24     .text.dpin_drive:0000000000000014 .L0 
C:\Users\abdul\AppData\Local\Temp\ccS6Whod.s:31     .text.dpin_release:0000000000000000 dpin_release
C:\Users\abdul\AppData\Local\Temp\ccS6Whod.s:34     .text.dpin_release:0000000000000000 .L0 
C:\Users\abdul\AppData\Local\Temp\ccS6Whod.s:35     .text.dpin_release:0000000000000000 .L0 
C:\Users\abdul\AppData\Local\Temp\ccS6Whod.s:36     .text.dpin_release:0000000000000000 .L0 
C:\Users\abdul\AppData\Local\Temp\ccS6Whod.s:41     .text.dpin_release:0000000000000014 .L0 
C:\Users\abdul\AppData\Local\Temp\ccS6Whod.s:48     .text.dpin_sample:0000000000000000 dpin_sample
C:\Users\abdul\AppData\Local\Temp\ccS6Whod.s:51     .text.dpin_sample:0000000000000000 .L0 
C:\Users\abdul\AppData\Local\Temp\ccS6Whod.s:52     .text.dpin_sample:0000000000000000 .L0 
C:\Users\abdul\AppData\Local\Temp\ccS6Whod.s:53     .text.dpin_sample:0000000000000000 .L0 
C:\Users\abdul\AppData\Local\Temp\ccS6Whod.s:54     .text.dpin_sample:0000000000000000 .L0 
C:\Users\abdul\AppData\Local\Temp\ccS6Whod.s:56     .text.dpin_sample:0000000000000004 .L0 
C:\Users\abdul\AppData\Local\Temp\ccS6Whod.s:58     .text.dpin_sample:0000000000000006 .L0 
C:\Users\abdul\AppData\Local\Temp\ccS6Whod.s:60     .text.dpin_sample:0000000000000006 .L0 
C:\Users\abdul\AppData\Local\Temp\ccS6Whod.s:63     .text.dpin_sample:000000000000000e .L0 
C:\Users\abdul\AppData\Local\Temp\ccS6Whod.s:64     .text.dpin_sample:0000000000000010 .L0 
C:\Users\abdul\AppData\Local\Temp\ccS6Whod.s:66     .text.dpin_sample:0000000000000010 .L0 
C:\Users\abdul\AppData\Local\Temp\ccS6Whod.s:69     .text.dpin_sample:0000000000000018 .L0 
C:\Users\abdul\AppData\Local\Temp\ccS6Whod.s:70     .text.dpin_sample:000000000000001a .L0 
C:\Users\abdul\AppData\Local\Temp\ccS6Whod.s:74     .text.dpin_sample:0000000000000020 .L0 
C:\Users\abdul\AppData\Local\Temp\ccS6Whod.s:76     .text.dpin_sample:0000000000000022 .L0 
C:\Users\abdul\AppData\Local\Temp\ccS6Whod.s:83     .text.lio_init_OW:0000000000000000 lio_init_OW
C:\Users\abdul\AppData\Local\Temp\ccS6Whod.s:86     .text.lio_init_OW:0000000000000000 .L0 
C:\Users\abdul\AppData\Local\Temp\ccS6Whod.s:87     .text.lio_init_OW:0000000000000000 .L0 
C:\Users\abdul\AppData\Local\Temp\ccS6Whod.s:88     .text.lio_init_OW:0000000000000000 .L0 
C:\Users\abdul\AppData\Local\Temp\ccS6Whod.s:89     .text.lio_init_OW:0000000000000000 .L0 
C:\Users\abdul\AppData\Local\Temp\ccS6Whod.s:91     .text.lio_init_OW:0000000000000002 .L0 
C:\Users\abdul\AppData\Local\Temp\ccS6Whod.s:93     .text.lio_init_OW:0000000000000002 .L0 
C:\Users\abdul\AppData\Local\Temp\ccS6Whod.s:95     .text.lio_init_OW:0000000000000006 .L0 
C:\Users\abdul\AppData\Local\Temp\ccS6Whod.s:96     .text.lio_init_OW:0000000000000008 .L0 
C:\Users\abdul\AppData\Local\Temp\ccS6Whod.s:98     .text.lio_init_OW:0000000000000008 .L0 
C:\Users\abdul\AppData\Local\Temp\ccS6Whod.s:101    .text.lio_init_OW:0000000000000010 .L0 
C:\Users\abdul\AppData\Local\Temp\ccS6Whod.s:102    .text.lio_init_OW:0000000000000010 .L0 
C:\Users\abdul\AppData\Local\Temp\ccS6Whod.s:103    .text.lio_init_OW:0000000000000012 .L0 
C:\Users\abdul\AppData\Local\Temp\ccS6Whod.s:105    .text.lio_init_OW:0000000000000012 .L0 
C:\Users\abdul\AppData\Local\Temp\ccS6Whod.s:107    .text.lio_init_OW:0000000000000016 .L0 
C:\Users\abdul\AppData\Local\Temp\ccS6Whod.s:108    .text.lio_init_OW:0000000000000016 .L0 
C:\Users\abdul\AppData\Local\Temp\ccS6Whod.s:113    .text.lio_init_OW:0000000000000022 .L0 
C:\Users\abdul\AppData\Local\Temp\ccS6Whod.s:115    .text.lio_init_OW:0000000000000024 .L0 
C:\Users\abdul\AppData\Local\Temp\ccS6Whod.s:117    .text.lio_init_OW:0000000000000024 .L0 
C:\Users\abdul\AppData\Local\Temp\ccS6Whod.s:119    .text.lio_init_OW:000000000000002c .L0 
C:\Users\abdul\AppData\Local\Temp\ccS6Whod.s:126    .text.lio_OW_write_bit:0000000000000000 lio_OW_write_bit
C:\Users\abdul\AppData\Local\Temp\ccS6Whod.s:129    .text.lio_OW_write_bit:0000000000000000 .L0 
C:\Users\abdul\AppData\Local\Temp\ccS6Whod.s:131    .text.lio_OW_write_bit:0000000000000000 .L0 
C:\Users\abdul\AppData\Local\Temp\ccS6Whod.s:132    .text.lio_OW_write_bit:0000000000000000 .L0 
C:\Users\abdul\AppData\Local\Temp\ccS6Whod.s:133    .text.lio_OW_write_bit:0000000000000000 .L0 
C:\Users\abdul\AppData\Local\Temp\ccS6Whod.s:135    .text.lio_OW_write_bit:0000000000000002 .L0 
C:\Users\abdul\AppData\Local\Temp\ccS6Whod.s:137    .text.lio_OW_write_bit:0000000000000004 .L0 
C:\Users\abdul\AppData\Local\Temp\ccS6Whod.s:139    .text.lio_OW_write_bit:0000000000000004 .L0 
C:\Users\abdul\AppData\Local\Temp\ccS6Whod.s:144    .text.lio_OW_write_bit:0000000000000006 .L0 
C:\Users\abdul\AppData\Local\Temp\ccS6Whod.s:147    .text.lio_OW_write_bit:000000000000000e .L0 
GAS LISTING C:\Users\abdul\AppData\Local\Temp\ccS6Whod.s 			page 16


C:\Users\abdul\AppData\Local\Temp\ccS6Whod.s:151    .text.lio_OW_write_bit:0000000000000018 .L0 
C:\Users\abdul\AppData\Local\Temp\ccS6Whod.s:154    .text.lio_OW_write_bit:0000000000000020 .L0 
C:\Users\abdul\AppData\Local\Temp\ccS6Whod.s:159    .text.lio_OW_write_bit:0000000000000024 .L0 
C:\Users\abdul\AppData\Local\Temp\ccS6Whod.s:160    .text.lio_OW_write_bit:0000000000000026 .L0 
C:\Users\abdul\AppData\Local\Temp\ccS6Whod.s:161    .text.lio_OW_write_bit:0000000000000026 .L0 
C:\Users\abdul\AppData\Local\Temp\ccS6Whod.s:164    .text.lio_OW_write_bit:0000000000000028 .L0 
C:\Users\abdul\AppData\Local\Temp\ccS6Whod.s:166    .text.lio_OW_write_bit:0000000000000028 .L0 
C:\Users\abdul\AppData\Local\Temp\ccS6Whod.s:170    .text.lio_OW_write_bit:0000000000000030 .L0 
C:\Users\abdul\AppData\Local\Temp\ccS6Whod.s:172    .text.lio_OW_write_bit:0000000000000030 .L0 
C:\Users\abdul\AppData\Local\Temp\ccS6Whod.s:175    .text.lio_OW_write_bit:0000000000000038 .L0 
C:\Users\abdul\AppData\Local\Temp\ccS6Whod.s:179    .text.lio_OW_write_bit:0000000000000044 .L0 
C:\Users\abdul\AppData\Local\Temp\ccS6Whod.s:182    .text.lio_OW_write_bit:000000000000004c .L0 
C:\Users\abdul\AppData\Local\Temp\ccS6Whod.s:184    .text.lio_OW_write_bit:0000000000000050 .L0 
C:\Users\abdul\AppData\Local\Temp\ccS6Whod.s:191    .text.lio_OW_read_bit:0000000000000000 lio_OW_read_bit
C:\Users\abdul\AppData\Local\Temp\ccS6Whod.s:194    .text.lio_OW_read_bit:0000000000000000 .L0 
C:\Users\abdul\AppData\Local\Temp\ccS6Whod.s:195    .text.lio_OW_read_bit:0000000000000000 .L0 
C:\Users\abdul\AppData\Local\Temp\ccS6Whod.s:197    .text.lio_OW_read_bit:0000000000000000 .L0 
C:\Users\abdul\AppData\Local\Temp\ccS6Whod.s:198    .text.lio_OW_read_bit:0000000000000000 .L0 
C:\Users\abdul\AppData\Local\Temp\ccS6Whod.s:199    .text.lio_OW_read_bit:0000000000000000 .L0 
C:\Users\abdul\AppData\Local\Temp\ccS6Whod.s:201    .text.lio_OW_read_bit:0000000000000002 .L0 
C:\Users\abdul\AppData\Local\Temp\ccS6Whod.s:204    .text.lio_OW_read_bit:0000000000000006 .L0 
C:\Users\abdul\AppData\Local\Temp\ccS6Whod.s:205    .text.lio_OW_read_bit:0000000000000006 .L0 
C:\Users\abdul\AppData\Local\Temp\ccS6Whod.s:207    .text.lio_OW_read_bit:0000000000000006 .L0 
C:\Users\abdul\AppData\Local\Temp\ccS6Whod.s:210    .text.lio_OW_read_bit:000000000000000e .L0 
C:\Users\abdul\AppData\Local\Temp\ccS6Whod.s:214    .text.lio_OW_read_bit:0000000000000018 .L0 
C:\Users\abdul\AppData\Local\Temp\ccS6Whod.s:217    .text.lio_OW_read_bit:0000000000000020 .L0 
C:\Users\abdul\AppData\Local\Temp\ccS6Whod.s:221    .text.lio_OW_read_bit:000000000000002a .L0 
C:\Users\abdul\AppData\Local\Temp\ccS6Whod.s:222    .text.lio_OW_read_bit:000000000000002a .L0 
C:\Users\abdul\AppData\Local\Temp\ccS6Whod.s:227    .text.lio_OW_read_bit:0000000000000034 .L0 
C:\Users\abdul\AppData\Local\Temp\ccS6Whod.s:231    .text.lio_OW_read_bit:0000000000000040 .L0 
C:\Users\abdul\AppData\Local\Temp\ccS6Whod.s:232    .text.lio_OW_read_bit:0000000000000040 .L0 
C:\Users\abdul\AppData\Local\Temp\ccS6Whod.s:234    .text.lio_OW_read_bit:0000000000000044 .L0 
C:\Users\abdul\AppData\Local\Temp\ccS6Whod.s:236    .text.lio_OW_read_bit:0000000000000046 .L0 
C:\Users\abdul\AppData\Local\Temp\ccS6Whod.s:240    .text.lio_OW_read_bit:0000000000000048 .L0 
C:\Users\abdul\AppData\Local\Temp\ccS6Whod.s:242    .text.lio_OW_read_bit:000000000000004a .L0 
C:\Users\abdul\AppData\Local\Temp\ccS6Whod.s:249    .text.lio_OW_read_byte:0000000000000000 lio_OW_read_byte
C:\Users\abdul\AppData\Local\Temp\ccS6Whod.s:252    .text.lio_OW_read_byte:0000000000000000 .L0 
C:\Users\abdul\AppData\Local\Temp\ccS6Whod.s:253    .text.lio_OW_read_byte:0000000000000000 .L0 
C:\Users\abdul\AppData\Local\Temp\ccS6Whod.s:255    .text.lio_OW_read_byte:0000000000000000 .L0 
C:\Users\abdul\AppData\Local\Temp\ccS6Whod.s:257    .text.lio_OW_read_byte:0000000000000000 .L0 
C:\Users\abdul\AppData\Local\Temp\ccS6Whod.s:259    .text.lio_OW_read_byte:0000000000000000 .L0 
C:\Users\abdul\AppData\Local\Temp\ccS6Whod.s:260    .text.lio_OW_read_byte:0000000000000000 .L0 
C:\Users\abdul\AppData\Local\Temp\ccS6Whod.s:262    .text.lio_OW_read_byte:0000000000000002 .L0 
C:\Users\abdul\AppData\Local\Temp\ccS6Whod.s:266    .text.lio_OW_read_byte:0000000000000008 .L0 
C:\Users\abdul\AppData\Local\Temp\ccS6Whod.s:267    .text.lio_OW_read_byte:0000000000000008 .L0 
C:\Users\abdul\AppData\Local\Temp\ccS6Whod.s:268    .text.lio_OW_read_byte:0000000000000008 .L0 
C:\Users\abdul\AppData\Local\Temp\ccS6Whod.s:270    .text.lio_OW_read_byte:0000000000000008 .L0 
C:\Users\abdul\AppData\Local\Temp\ccS6Whod.s:272    .text.lio_OW_read_byte:000000000000000a .L0 
C:\Users\abdul\AppData\Local\Temp\ccS6Whod.s:277    .text.lio_OW_read_byte:000000000000000c .L0 
C:\Users\abdul\AppData\Local\Temp\ccS6Whod.s:278    .text.lio_OW_read_byte:000000000000000c .L0 
C:\Users\abdul\AppData\Local\Temp\ccS6Whod.s:281    .text.lio_OW_read_byte:000000000000000e .L0 
C:\Users\abdul\AppData\Local\Temp\ccS6Whod.s:282    .text.lio_OW_read_byte:000000000000000e .L0 
C:\Users\abdul\AppData\Local\Temp\ccS6Whod.s:285    .text.lio_OW_read_byte:0000000000000016 .L0 
C:\Users\abdul\AppData\Local\Temp\ccS6Whod.s:287    .text.lio_OW_read_byte:0000000000000018 .L0 
C:\Users\abdul\AppData\Local\Temp\ccS6Whod.s:288    .text.lio_OW_read_byte:0000000000000018 .L0 
C:\Users\abdul\AppData\Local\Temp\ccS6Whod.s:297    .text.lio_OW_read_byte:0000000000000026 .L0 
C:\Users\abdul\AppData\Local\Temp\ccS6Whod.s:300    .text.lio_OW_read_byte:0000000000000028 .L0 
GAS LISTING C:\Users\abdul\AppData\Local\Temp\ccS6Whod.s 			page 17


C:\Users\abdul\AppData\Local\Temp\ccS6Whod.s:301    .text.lio_OW_read_byte:0000000000000028 .L0 
C:\Users\abdul\AppData\Local\Temp\ccS6Whod.s:303    .text.lio_OW_read_byte:000000000000002c .L0 
C:\Users\abdul\AppData\Local\Temp\ccS6Whod.s:305    .text.lio_OW_read_byte:000000000000002e .L0 
C:\Users\abdul\AppData\Local\Temp\ccS6Whod.s:308    .text.lio_OW_read_byte:0000000000000030 .L0 
C:\Users\abdul\AppData\Local\Temp\ccS6Whod.s:311    .text.lio_OW_read_byte:0000000000000032 .L0 
C:\Users\abdul\AppData\Local\Temp\ccS6Whod.s:313    .text.lio_OW_read_byte:0000000000000034 .L0 
C:\Users\abdul\AppData\Local\Temp\ccS6Whod.s:320    .text.lio_OW_write_byte:0000000000000000 lio_OW_write_byte
C:\Users\abdul\AppData\Local\Temp\ccS6Whod.s:323    .text.lio_OW_write_byte:0000000000000000 .L0 
C:\Users\abdul\AppData\Local\Temp\ccS6Whod.s:325    .text.lio_OW_write_byte:0000000000000000 .L0 
C:\Users\abdul\AppData\Local\Temp\ccS6Whod.s:327    .text.lio_OW_write_byte:0000000000000000 .L0 
C:\Users\abdul\AppData\Local\Temp\ccS6Whod.s:329    .text.lio_OW_write_byte:0000000000000000 .L0 
C:\Users\abdul\AppData\Local\Temp\ccS6Whod.s:330    .text.lio_OW_write_byte:0000000000000000 .L0 
C:\Users\abdul\AppData\Local\Temp\ccS6Whod.s:332    .text.lio_OW_write_byte:0000000000000002 .L0 
C:\Users\abdul\AppData\Local\Temp\ccS6Whod.s:336    .text.lio_OW_write_byte:0000000000000008 .L0 
C:\Users\abdul\AppData\Local\Temp\ccS6Whod.s:337    .text.lio_OW_write_byte:0000000000000008 .L0 
C:\Users\abdul\AppData\Local\Temp\ccS6Whod.s:338    .text.lio_OW_write_byte:0000000000000008 .L0 
C:\Users\abdul\AppData\Local\Temp\ccS6Whod.s:340    .text.lio_OW_write_byte:0000000000000008 .L0 
C:\Users\abdul\AppData\Local\Temp\ccS6Whod.s:347    .text.lio_OW_write_byte:000000000000000c .L0 
C:\Users\abdul\AppData\Local\Temp\ccS6Whod.s:353    .text.lio_OW_write_byte:000000000000001a .L0 
C:\Users\abdul\AppData\Local\Temp\ccS6Whod.s:354    .text.lio_OW_write_byte:000000000000001a .L0 
C:\Users\abdul\AppData\Local\Temp\ccS6Whod.s:357    .text.lio_OW_write_byte:000000000000001c .L0 
C:\Users\abdul\AppData\Local\Temp\ccS6Whod.s:360    .text.lio_OW_write_byte:000000000000001e .L0 
C:\Users\abdul\AppData\Local\Temp\ccS6Whod.s:361    .text.lio_OW_write_byte:0000000000000020 .L0 
C:\Users\abdul\AppData\Local\Temp\ccS6Whod.s:363    .text.lio_OW_write_byte:0000000000000022 .L0 
C:\Users\abdul\AppData\Local\Temp\ccS6Whod.s:365    .text.lio_OW_write_byte:0000000000000024 .L0 
C:\Users\abdul\AppData\Local\Temp\ccS6Whod.s:369    .text.lio_OW_write_byte:0000000000000026 .L0 
C:\Users\abdul\AppData\Local\Temp\ccS6Whod.s:371    .text.lio_OW_write_byte:0000000000000028 .L0 
C:\Users\abdul\AppData\Local\Temp\ccS6Whod.s:378    .text.lio_OW_touch_reset:0000000000000000 lio_OW_touch_reset
C:\Users\abdul\AppData\Local\Temp\ccS6Whod.s:381    .text.lio_OW_touch_reset:0000000000000000 .L0 
C:\Users\abdul\AppData\Local\Temp\ccS6Whod.s:382    .text.lio_OW_touch_reset:0000000000000000 .L0 
C:\Users\abdul\AppData\Local\Temp\ccS6Whod.s:384    .text.lio_OW_touch_reset:0000000000000000 .L0 
C:\Users\abdul\AppData\Local\Temp\ccS6Whod.s:385    .text.lio_OW_touch_reset:0000000000000000 .L0 
C:\Users\abdul\AppData\Local\Temp\ccS6Whod.s:386    .text.lio_OW_touch_reset:0000000000000000 .L0 
C:\Users\abdul\AppData\Local\Temp\ccS6Whod.s:388    .text.lio_OW_touch_reset:0000000000000002 .L0 
C:\Users\abdul\AppData\Local\Temp\ccS6Whod.s:390    .text.lio_OW_touch_reset:0000000000000002 .L0 
C:\Users\abdul\AppData\Local\Temp\ccS6Whod.s:392    .text.lio_OW_touch_reset:0000000000000004 .L0 
C:\Users\abdul\AppData\Local\Temp\ccS6Whod.s:394    .text.lio_OW_touch_reset:0000000000000008 .L0 
C:\Users\abdul\AppData\Local\Temp\ccS6Whod.s:395    .text.lio_OW_touch_reset:0000000000000008 .L0 
C:\Users\abdul\AppData\Local\Temp\ccS6Whod.s:397    .text.lio_OW_touch_reset:0000000000000008 .L0 
C:\Users\abdul\AppData\Local\Temp\ccS6Whod.s:400    .text.lio_OW_touch_reset:0000000000000010 .L0 
C:\Users\abdul\AppData\Local\Temp\ccS6Whod.s:403    .text.lio_OW_touch_reset:0000000000000018 .L0 
C:\Users\abdul\AppData\Local\Temp\ccS6Whod.s:407    .text.lio_OW_touch_reset:0000000000000024 .L0 
C:\Users\abdul\AppData\Local\Temp\ccS6Whod.s:410    .text.lio_OW_touch_reset:000000000000002c .L0 
C:\Users\abdul\AppData\Local\Temp\ccS6Whod.s:414    .text.lio_OW_touch_reset:0000000000000038 .L0 
C:\Users\abdul\AppData\Local\Temp\ccS6Whod.s:415    .text.lio_OW_touch_reset:0000000000000038 .L0 
C:\Users\abdul\AppData\Local\Temp\ccS6Whod.s:420    .text.lio_OW_touch_reset:0000000000000042 .L0 
C:\Users\abdul\AppData\Local\Temp\ccS6Whod.s:424    .text.lio_OW_touch_reset:000000000000004e .L0 
C:\Users\abdul\AppData\Local\Temp\ccS6Whod.s:425    .text.lio_OW_touch_reset:000000000000004e .L0 
C:\Users\abdul\AppData\Local\Temp\ccS6Whod.s:427    .text.lio_OW_touch_reset:0000000000000052 .L0 
C:\Users\abdul\AppData\Local\Temp\ccS6Whod.s:429    .text.lio_OW_touch_reset:0000000000000054 .L0 
C:\Users\abdul\AppData\Local\Temp\ccS6Whod.s:433    .text.lio_OW_touch_reset:0000000000000056 .L0 
C:\Users\abdul\AppData\Local\Temp\ccS6Whod.s:435    .text.lio_OW_touch_reset:0000000000000058 .L0 
C:\Users\abdul\AppData\Local\Temp\ccS6Whod.s:442    .text.lio_read_temp:0000000000000000 lio_read_temp
C:\Users\abdul\AppData\Local\Temp\ccS6Whod.s:445    .text.lio_read_temp:0000000000000000 .L0 
C:\Users\abdul\AppData\Local\Temp\ccS6Whod.s:446    .text.lio_read_temp:0000000000000000 .L0 
C:\Users\abdul\AppData\Local\Temp\ccS6Whod.s:448    .text.lio_read_temp:0000000000000000 .L0 
C:\Users\abdul\AppData\Local\Temp\ccS6Whod.s:449    .text.lio_read_temp:0000000000000000 .L0 
GAS LISTING C:\Users\abdul\AppData\Local\Temp\ccS6Whod.s 			page 18


C:\Users\abdul\AppData\Local\Temp\ccS6Whod.s:450    .text.lio_read_temp:0000000000000000 .L0 
C:\Users\abdul\AppData\Local\Temp\ccS6Whod.s:452    .text.lio_read_temp:0000000000000002 .L0 
C:\Users\abdul\AppData\Local\Temp\ccS6Whod.s:454    .text.lio_read_temp:0000000000000004 .L0 
C:\Users\abdul\AppData\Local\Temp\ccS6Whod.s:456    .text.lio_read_temp:0000000000000004 .L0 
C:\Users\abdul\AppData\Local\Temp\ccS6Whod.s:459    .text.lio_read_temp:000000000000000c .L0 
C:\Users\abdul\AppData\Local\Temp\ccS6Whod.s:461    .text.lio_read_temp:000000000000000e .L0 
C:\Users\abdul\AppData\Local\Temp\ccS6Whod.s:462    .text.lio_read_temp:0000000000000010 .L0 
C:\Users\abdul\AppData\Local\Temp\ccS6Whod.s:464    .text.lio_read_temp:0000000000000010 .L0 
C:\Users\abdul\AppData\Local\Temp\ccS6Whod.s:466    .text.lio_read_temp:0000000000000012 .L0 
C:\Users\abdul\AppData\Local\Temp\ccS6Whod.s:469    .text.lio_read_temp:000000000000001a .L0 
C:\Users\abdul\AppData\Local\Temp\ccS6Whod.s:473    .text.lio_read_temp:0000000000000026 .L0 
C:\Users\abdul\AppData\Local\Temp\ccS6Whod.s:477    .text.lio_read_temp:0000000000000032 .L0 
C:\Users\abdul\AppData\Local\Temp\ccS6Whod.s:481    .text.lio_read_temp:000000000000003e .L0 
C:\Users\abdul\AppData\Local\Temp\ccS6Whod.s:485    .text.lio_read_temp:000000000000004a .L0 
C:\Users\abdul\AppData\Local\Temp\ccS6Whod.s:489    .text.lio_read_temp:0000000000000056 .L0 
C:\Users\abdul\AppData\Local\Temp\ccS6Whod.s:490    .text.lio_read_temp:0000000000000056 .L0 
C:\Users\abdul\AppData\Local\Temp\ccS6Whod.s:493    .text.lio_read_temp:000000000000005a .L0 
C:\Users\abdul\AppData\Local\Temp\ccS6Whod.s:496    .text.lio_read_temp:0000000000000062 .L0 
C:\Users\abdul\AppData\Local\Temp\ccS6Whod.s:500    .text.lio_read_temp:000000000000006e .L0 
C:\Users\abdul\AppData\Local\Temp\ccS6Whod.s:504    .text.lio_read_temp:000000000000007a .L0 
C:\Users\abdul\AppData\Local\Temp\ccS6Whod.s:508    .text.lio_read_temp:0000000000000086 .L0 
C:\Users\abdul\AppData\Local\Temp\ccS6Whod.s:511    .text.lio_read_temp:000000000000008e .L0 
C:\Users\abdul\AppData\Local\Temp\ccS6Whod.s:515    .text.lio_read_temp:000000000000009a .L0 
C:\Users\abdul\AppData\Local\Temp\ccS6Whod.s:519    .text.lio_read_temp:00000000000000a6 .L0 
C:\Users\abdul\AppData\Local\Temp\ccS6Whod.s:520    .text.lio_read_temp:00000000000000a6 .L0 
C:\Users\abdul\AppData\Local\Temp\ccS6Whod.s:525    .text.lio_read_temp:00000000000000b0 .L0 
C:\Users\abdul\AppData\Local\Temp\ccS6Whod.s:526    .text.lio_read_temp:00000000000000b0 .L0 
C:\Users\abdul\AppData\Local\Temp\ccS6Whod.s:529    .text.lio_read_temp:00000000000000b8 .L0 
C:\Users\abdul\AppData\Local\Temp\ccS6Whod.s:530    .text.lio_read_temp:00000000000000b8 .L0 
C:\Users\abdul\AppData\Local\Temp\ccS6Whod.s:533    .text.lio_read_temp:00000000000000ba .L0 
C:\Users\abdul\AppData\Local\Temp\ccS6Whod.s:535    .text.lio_read_temp:00000000000000bc .L0 
C:\Users\abdul\AppData\Local\Temp\ccS6Whod.s:536    .text.lio_read_temp:00000000000000be .L0 
C:\Users\abdul\AppData\Local\Temp\ccS6Whod.s:538    .text.lio_read_temp:00000000000000c0 .L0 
C:\Users\abdul\AppData\Local\Temp\ccS6Whod.s:544    .text.lio_read_temp:00000000000000c6 .L0 
C:\Users\abdul\AppData\Local\Temp\ccS6Whod.s:546    .text.lio_read_temp:00000000000000c8 .L0 
C:\Users\abdul\AppData\Local\Temp\ccS6Whod.s:555    .sdata.first_read:0000000000000000 first_read
C:\Users\abdul\AppData\Local\Temp\ccS6Whod.s:552    .sdata.first_read:0000000000000000 .LANCHOR0
C:\Users\abdul\AppData\Local\Temp\ccS6Whod.s:27     .text.dpin_drive:0000000000000014 .L0 
C:\Users\abdul\AppData\Local\Temp\ccS6Whod.s:44     .text.dpin_release:0000000000000014 .L0 
C:\Users\abdul\AppData\Local\Temp\ccS6Whod.s:79     .text.dpin_sample:0000000000000022 .L0 
C:\Users\abdul\AppData\Local\Temp\ccS6Whod.s:122    .text.lio_init_OW:000000000000002c .L0 
C:\Users\abdul\AppData\Local\Temp\ccS6Whod.s:187    .text.lio_OW_write_bit:0000000000000050 .L0 
C:\Users\abdul\AppData\Local\Temp\ccS6Whod.s:245    .text.lio_OW_read_bit:000000000000004a .L0 
C:\Users\abdul\AppData\Local\Temp\ccS6Whod.s:316    .text.lio_OW_read_byte:0000000000000034 .L0 
C:\Users\abdul\AppData\Local\Temp\ccS6Whod.s:374    .text.lio_OW_write_byte:0000000000000028 .L0 
C:\Users\abdul\AppData\Local\Temp\ccS6Whod.s:438    .text.lio_OW_touch_reset:0000000000000058 .L0 
C:\Users\abdul\AppData\Local\Temp\ccS6Whod.s:550    .text.lio_read_temp:00000000000000c8 .L0 
                     .debug_frame:0000000000000000 .L0 
C:\Users\abdul\AppData\Local\Temp\ccS6Whod.s:168    .text.lio_OW_write_bit:0000000000000030 .L8
C:\Users\abdul\AppData\Local\Temp\ccS6Whod.s:155    .text.lio_OW_write_bit:0000000000000024 .L10
C:\Users\abdul\AppData\Local\Temp\ccS6Whod.s:292    .text.lio_OW_read_byte:0000000000000020 .L14
C:\Users\abdul\AppData\Local\Temp\ccS6Whod.s:274    .text.lio_OW_read_byte:000000000000000c .L15
C:\Users\abdul\AppData\Local\Temp\ccS6Whod.s:344    .text.lio_OW_write_byte:000000000000000c .L22
C:\Users\abdul\AppData\Local\Temp\ccS6Whod.s:491    .text.lio_read_temp:000000000000005a .L28
C:\Users\abdul\AppData\Local\Temp\ccS6Whod.s:1434   .debug_abbrev:0000000000000000 .Ldebug_abbrev0
C:\Users\abdul\AppData\Local\Temp\ccS6Whod.s:2304   .debug_str:000000000000001a .LASF74
C:\Users\abdul\AppData\Local\Temp\ccS6Whod.s:2390   .debug_str:00000000000002bf .LASF75
GAS LISTING C:\Users\abdul\AppData\Local\Temp\ccS6Whod.s 			page 19


C:\Users\abdul\AppData\Local\Temp\ccS6Whod.s:2372   .debug_str:00000000000001fd .LASF76
C:\Users\abdul\AppData\Local\Temp\ccS6Whod.s:2262   .debug_ranges:0000000000000000 .Ldebug_ranges0
C:\Users\abdul\AppData\Local\Temp\ccS6Whod.s:2298   .debug_line:0000000000000000 .Ldebug_line0
C:\Users\abdul\AppData\Local\Temp\ccS6Whod.s:2384   .debug_str:0000000000000293 .LASF0
C:\Users\abdul\AppData\Local\Temp\ccS6Whod.s:2456   .debug_str:0000000000000432 .LASF2
C:\Users\abdul\AppData\Local\Temp\ccS6Whod.s:2374   .debug_str:0000000000000249 .LASF1
C:\Users\abdul\AppData\Local\Temp\ccS6Whod.s:2438   .debug_str:00000000000003d0 .LASF3
C:\Users\abdul\AppData\Local\Temp\ccS6Whod.s:2326   .debug_str:0000000000000112 .LASF4
C:\Users\abdul\AppData\Local\Temp\ccS6Whod.s:2400   .debug_str:00000000000002fe .LASF5
C:\Users\abdul\AppData\Local\Temp\ccS6Whod.s:2342   .debug_str:0000000000000167 .LASF6
C:\Users\abdul\AppData\Local\Temp\ccS6Whod.s:2320   .debug_str:00000000000000f2 .LASF7
C:\Users\abdul\AppData\Local\Temp\ccS6Whod.s:2424   .debug_str:0000000000000376 .LASF8
C:\Users\abdul\AppData\Local\Temp\ccS6Whod.s:2318   .debug_str:00000000000000e4 .LASF9
C:\Users\abdul\AppData\Local\Temp\ccS6Whod.s:2386   .debug_str:000000000000029f .LASF10
C:\Users\abdul\AppData\Local\Temp\ccS6Whod.s:2392   .debug_str:00000000000002cc .LASF11
C:\Users\abdul\AppData\Local\Temp\ccS6Whod.s:2330   .debug_str:0000000000000127 .LASF12
C:\Users\abdul\AppData\Local\Temp\ccS6Whod.s:2408   .debug_str:0000000000000332 .LASF13
C:\Users\abdul\AppData\Local\Temp\ccS6Whod.s:2388   .debug_str:00000000000002b6 .LASF14
C:\Users\abdul\AppData\Local\Temp\ccS6Whod.s:2306   .debug_str:00000000000000a2 .LASF53
C:\Users\abdul\AppData\Local\Temp\ccS6Whod.s:2412   .debug_str:0000000000000343 .LASF15
C:\Users\abdul\AppData\Local\Temp\ccS6Whod.s:2414   .debug_str:000000000000034c .LASF16
C:\Users\abdul\AppData\Local\Temp\ccS6Whod.s:2454   .debug_str:000000000000042a .LASF17
C:\Users\abdul\AppData\Local\Temp\ccS6Whod.s:2452   .debug_str:0000000000000421 .LASF18
C:\Users\abdul\AppData\Local\Temp\ccS6Whod.s:2448   .debug_str:0000000000000409 .LASF19
C:\Users\abdul\AppData\Local\Temp\ccS6Whod.s:2358   .debug_str:00000000000001b1 .LASF20
C:\Users\abdul\AppData\Local\Temp\ccS6Whod.s:2360   .debug_str:00000000000001bc .LASF21
C:\Users\abdul\AppData\Local\Temp\ccS6Whod.s:2362   .debug_str:00000000000001c7 .LASF22
C:\Users\abdul\AppData\Local\Temp\ccS6Whod.s:2364   .debug_str:00000000000001d2 .LASF23
C:\Users\abdul\AppData\Local\Temp\ccS6Whod.s:2366   .debug_str:00000000000001dd .LASF24
C:\Users\abdul\AppData\Local\Temp\ccS6Whod.s:2350   .debug_str:0000000000000189 .LASF25
C:\Users\abdul\AppData\Local\Temp\ccS6Whod.s:2338   .debug_str:0000000000000151 .LASF26
C:\Users\abdul\AppData\Local\Temp\ccS6Whod.s:2368   .debug_str:00000000000001e8 .LASF27
C:\Users\abdul\AppData\Local\Temp\ccS6Whod.s:2348   .debug_str:0000000000000180 .LASF28
C:\Users\abdul\AppData\Local\Temp\ccS6Whod.s:2434   .debug_str:00000000000003ba .LASF29
C:\Users\abdul\AppData\Local\Temp\ccS6Whod.s:2436   .debug_str:00000000000003c5 .LASF30
C:\Users\abdul\AppData\Local\Temp\ccS6Whod.s:2442   .debug_str:00000000000003eb .LASF31
C:\Users\abdul\AppData\Local\Temp\ccS6Whod.s:2444   .debug_str:00000000000003f5 .LASF32
C:\Users\abdul\AppData\Local\Temp\ccS6Whod.s:2402   .debug_str:0000000000000311 .LASF33
C:\Users\abdul\AppData\Local\Temp\ccS6Whod.s:2404   .debug_str:000000000000031a .LASF34
C:\Users\abdul\AppData\Local\Temp\ccS6Whod.s:2334   .debug_str:000000000000013f .LASF35
C:\Users\abdul\AppData\Local\Temp\ccS6Whod.s:2336   .debug_str:0000000000000148 .LASF36
C:\Users\abdul\AppData\Local\Temp\ccS6Whod.s:2382   .debug_str:000000000000028a .LASF37
C:\Users\abdul\AppData\Local\Temp\ccS6Whod.s:2398   .debug_str:00000000000002f6 .LASF38
C:\Users\abdul\AppData\Local\Temp\ccS6Whod.s:2418   .debug_str:000000000000035a .LASF39
C:\Users\abdul\AppData\Local\Temp\ccS6Whod.s:2324   .debug_str:000000000000010a .LASF40
C:\Users\abdul\AppData\Local\Temp\ccS6Whod.s:2420   .debug_str:0000000000000362 .LASF41
C:\Users\abdul\AppData\Local\Temp\ccS6Whod.s:2308   .debug_str:00000000000000b2 .LASF42
C:\Users\abdul\AppData\Local\Temp\ccS6Whod.s:2310   .debug_str:00000000000000bc .LASF43
C:\Users\abdul\AppData\Local\Temp\ccS6Whod.s:2312   .debug_str:00000000000000c6 .LASF44
C:\Users\abdul\AppData\Local\Temp\ccS6Whod.s:2314   .debug_str:00000000000000d0 .LASF45
C:\Users\abdul\AppData\Local\Temp\ccS6Whod.s:2316   .debug_str:00000000000000da .LASF46
C:\Users\abdul\AppData\Local\Temp\ccS6Whod.s:2410   .debug_str:000000000000033a .LASF47
C:\Users\abdul\AppData\Local\Temp\ccS6Whod.s:2380   .debug_str:0000000000000281 .LASF48
C:\Users\abdul\AppData\Local\Temp\ccS6Whod.s:2356   .debug_str:00000000000001a6 .LASF49
C:\Users\abdul\AppData\Local\Temp\ccS6Whod.s:2344   .debug_str:0000000000000170 .LASF50
C:\Users\abdul\AppData\Local\Temp\ccS6Whod.s:2432   .debug_str:00000000000003af .LASF51
C:\Users\abdul\AppData\Local\Temp\ccS6Whod.s:2370   .debug_str:00000000000001f1 .LASF52
GAS LISTING C:\Users\abdul\AppData\Local\Temp\ccS6Whod.s 			page 20


C:\Users\abdul\AppData\Local\Temp\ccS6Whod.s:2328   .debug_str:000000000000011c .LASF54
C:\Users\abdul\AppData\Local\Temp\ccS6Whod.s:2450   .debug_str:0000000000000413 .LASF57
C:\Users\abdul\AppData\Local\Temp\ccS6Whod.s:443    .text.lio_read_temp:0000000000000000 .LFB11
C:\Users\abdul\AppData\Local\Temp\ccS6Whod.s:547    .text.lio_read_temp:00000000000000c8 .LFE11
C:\Users\abdul\AppData\Local\Temp\ccS6Whod.s:1932   .debug_loc:0000000000000000 .LLST15
C:\Users\abdul\AppData\Local\Temp\ccS6Whod.s:2352   .debug_str:0000000000000194 .LASF55
C:\Users\abdul\AppData\Local\Temp\ccS6Whod.s:1950   .debug_loc:000000000000002c .LLST16
C:\Users\abdul\AppData\Local\Temp\ccS6Whod.s:2346   .debug_str:0000000000000179 .LASF56
C:\Users\abdul\AppData\Local\Temp\ccS6Whod.s:1957   .debug_loc:000000000000003f .LLST17
C:\Users\abdul\AppData\Local\Temp\ccS6Whod.s:467    .text.lio_read_temp:000000000000001a .LVL49
C:\Users\abdul\AppData\Local\Temp\ccS6Whod.s:471    .text.lio_read_temp:0000000000000026 .LVL50
C:\Users\abdul\AppData\Local\Temp\ccS6Whod.s:475    .text.lio_read_temp:0000000000000032 .LVL51
C:\Users\abdul\AppData\Local\Temp\ccS6Whod.s:479    .text.lio_read_temp:000000000000003e .LVL52
C:\Users\abdul\AppData\Local\Temp\ccS6Whod.s:483    .text.lio_read_temp:000000000000004a .LVL53
C:\Users\abdul\AppData\Local\Temp\ccS6Whod.s:487    .text.lio_read_temp:0000000000000056 .LVL54
C:\Users\abdul\AppData\Local\Temp\ccS6Whod.s:494    .text.lio_read_temp:0000000000000062 .LVL55
C:\Users\abdul\AppData\Local\Temp\ccS6Whod.s:498    .text.lio_read_temp:000000000000006e .LVL56
C:\Users\abdul\AppData\Local\Temp\ccS6Whod.s:502    .text.lio_read_temp:000000000000007a .LVL57
C:\Users\abdul\AppData\Local\Temp\ccS6Whod.s:506    .text.lio_read_temp:0000000000000086 .LVL58
C:\Users\abdul\AppData\Local\Temp\ccS6Whod.s:509    .text.lio_read_temp:000000000000008e .LVL59
C:\Users\abdul\AppData\Local\Temp\ccS6Whod.s:513    .text.lio_read_temp:000000000000009a .LVL60
C:\Users\abdul\AppData\Local\Temp\ccS6Whod.s:517    .text.lio_read_temp:00000000000000a6 .LVL61
C:\Users\abdul\AppData\Local\Temp\ccS6Whod.s:521    .text.lio_read_temp:00000000000000ae .LVL62
C:\Users\abdul\AppData\Local\Temp\ccS6Whod.s:527    .text.lio_read_temp:00000000000000b8 .LVL64
C:\Users\abdul\AppData\Local\Temp\ccS6Whod.s:2430   .debug_str:000000000000039c .LASF58
C:\Users\abdul\AppData\Local\Temp\ccS6Whod.s:379    .text.lio_OW_touch_reset:0000000000000000 .LFB10
C:\Users\abdul\AppData\Local\Temp\ccS6Whod.s:436    .text.lio_OW_touch_reset:0000000000000058 .LFE10
C:\Users\abdul\AppData\Local\Temp\ccS6Whod.s:1969   .debug_loc:000000000000005e .LLST13
C:\Users\abdul\AppData\Local\Temp\ccS6Whod.s:1987   .debug_loc:000000000000008a .LLST14
C:\Users\abdul\AppData\Local\Temp\ccS6Whod.s:398    .text.lio_OW_touch_reset:0000000000000010 .LVL39
C:\Users\abdul\AppData\Local\Temp\ccS6Whod.s:401    .text.lio_OW_touch_reset:0000000000000018 .LVL40
C:\Users\abdul\AppData\Local\Temp\ccS6Whod.s:405    .text.lio_OW_touch_reset:0000000000000024 .LVL41
C:\Users\abdul\AppData\Local\Temp\ccS6Whod.s:408    .text.lio_OW_touch_reset:000000000000002c .LVL42
C:\Users\abdul\AppData\Local\Temp\ccS6Whod.s:412    .text.lio_OW_touch_reset:0000000000000038 .LVL43
C:\Users\abdul\AppData\Local\Temp\ccS6Whod.s:416    .text.lio_OW_touch_reset:0000000000000040 .LVL44
C:\Users\abdul\AppData\Local\Temp\ccS6Whod.s:422    .text.lio_OW_touch_reset:000000000000004e .LVL46
C:\Users\abdul\AppData\Local\Temp\ccS6Whod.s:2378   .debug_str:000000000000026f .LASF62
C:\Users\abdul\AppData\Local\Temp\ccS6Whod.s:321    .text.lio_OW_write_byte:0000000000000000 .LFB9
C:\Users\abdul\AppData\Local\Temp\ccS6Whod.s:372    .text.lio_OW_write_byte:0000000000000028 .LFE9
C:\Users\abdul\AppData\Local\Temp\ccS6Whod.s:1999   .debug_loc:00000000000000a9 .LLST10
C:\Users\abdul\AppData\Local\Temp\ccS6Whod.s:2416   .debug_str:0000000000000355 .LASF77
C:\Users\abdul\AppData\Local\Temp\ccS6Whod.s:2017   .debug_loc:00000000000000d5 .LLST11
C:\Users\abdul\AppData\Local\Temp\ccS6Whod.s:2028   .debug_loc:00000000000000f3 .LLST12
C:\Users\abdul\AppData\Local\Temp\ccS6Whod.s:351    .text.lio_OW_write_byte:000000000000001a .LVL35
C:\Users\abdul\AppData\Local\Temp\ccS6Whod.s:2440   .debug_str:00000000000003da .LASF59
C:\Users\abdul\AppData\Local\Temp\ccS6Whod.s:250    .text.lio_OW_read_byte:0000000000000000 .LFB8
C:\Users\abdul\AppData\Local\Temp\ccS6Whod.s:314    .text.lio_OW_read_byte:0000000000000034 .LFE8
C:\Users\abdul\AppData\Local\Temp\ccS6Whod.s:2052   .debug_loc:0000000000000125 .LLST7
C:\Users\abdul\AppData\Local\Temp\ccS6Whod.s:2302   .debug_str:0000000000000013 .LASF60
C:\Users\abdul\AppData\Local\Temp\ccS6Whod.s:2070   .debug_loc:0000000000000151 .LLST8
C:\Users\abdul\AppData\Local\Temp\ccS6Whod.s:2086   .debug_loc:000000000000017b .LLST9
C:\Users\abdul\AppData\Local\Temp\ccS6Whod.s:283    .text.lio_OW_read_byte:0000000000000016 .LVL26
C:\Users\abdul\AppData\Local\Temp\ccS6Whod.s:2332   .debug_str:000000000000012f .LASF61
C:\Users\abdul\AppData\Local\Temp\ccS6Whod.s:192    .text.lio_OW_read_bit:0000000000000000 .LFB7
C:\Users\abdul\AppData\Local\Temp\ccS6Whod.s:243    .text.lio_OW_read_bit:000000000000004a .LFE7
C:\Users\abdul\AppData\Local\Temp\ccS6Whod.s:2110   .debug_loc:00000000000001ad .LLST5
C:\Users\abdul\AppData\Local\Temp\ccS6Whod.s:2128   .debug_loc:00000000000001d9 .LLST6
GAS LISTING C:\Users\abdul\AppData\Local\Temp\ccS6Whod.s 			page 21


C:\Users\abdul\AppData\Local\Temp\ccS6Whod.s:208    .text.lio_OW_read_bit:000000000000000e .LVL15
C:\Users\abdul\AppData\Local\Temp\ccS6Whod.s:212    .text.lio_OW_read_bit:0000000000000018 .LVL16
C:\Users\abdul\AppData\Local\Temp\ccS6Whod.s:215    .text.lio_OW_read_bit:0000000000000020 .LVL17
C:\Users\abdul\AppData\Local\Temp\ccS6Whod.s:219    .text.lio_OW_read_bit:000000000000002a .LVL18
C:\Users\abdul\AppData\Local\Temp\ccS6Whod.s:223    .text.lio_OW_read_bit:0000000000000032 .LVL19
C:\Users\abdul\AppData\Local\Temp\ccS6Whod.s:229    .text.lio_OW_read_bit:0000000000000040 .LVL21
C:\Users\abdul\AppData\Local\Temp\ccS6Whod.s:2396   .debug_str:00000000000002e5 .LASF78
C:\Users\abdul\AppData\Local\Temp\ccS6Whod.s:2394   .debug_str:00000000000002d9 .LASF64
C:\Users\abdul\AppData\Local\Temp\ccS6Whod.s:84     .text.lio_init_OW:0000000000000000 .LFB5
C:\Users\abdul\AppData\Local\Temp\ccS6Whod.s:120    .text.lio_init_OW:000000000000002c .LFE5
C:\Users\abdul\AppData\Local\Temp\ccS6Whod.s:2140   .debug_loc:00000000000001f8 .LLST1
C:\Users\abdul\AppData\Local\Temp\ccS6Whod.s:99     .text.lio_init_OW:0000000000000010 .LVL3
C:\Users\abdul\AppData\Local\Temp\ccS6Whod.s:118    .text.lio_init_OW:000000000000002c .LVL4
C:\Users\abdul\AppData\Local\Temp\ccS6Whod.s:2340   .debug_str:000000000000015b .LASF63
C:\Users\abdul\AppData\Local\Temp\ccS6Whod.s:49     .text.dpin_sample:0000000000000000 .LFB4
C:\Users\abdul\AppData\Local\Temp\ccS6Whod.s:77     .text.dpin_sample:0000000000000022 .LFE4
C:\Users\abdul\AppData\Local\Temp\ccS6Whod.s:2158   .debug_loc:0000000000000224 .LLST0
C:\Users\abdul\AppData\Local\Temp\ccS6Whod.s:67     .text.dpin_sample:0000000000000018 .LVL2
C:\Users\abdul\AppData\Local\Temp\ccS6Whod.s:2422   .debug_str:0000000000000369 .LASF65
C:\Users\abdul\AppData\Local\Temp\ccS6Whod.s:32     .text.dpin_release:0000000000000000 .LFB3
C:\Users\abdul\AppData\Local\Temp\ccS6Whod.s:42     .text.dpin_release:0000000000000014 .LFE3
C:\Users\abdul\AppData\Local\Temp\ccS6Whod.s:40     .text.dpin_release:0000000000000014 .LVL1
C:\Users\abdul\AppData\Local\Temp\ccS6Whod.s:2354   .debug_str:000000000000019b .LASF66
C:\Users\abdul\AppData\Local\Temp\ccS6Whod.s:14     .text.dpin_drive:0000000000000000 .LFB2
C:\Users\abdul\AppData\Local\Temp\ccS6Whod.s:25     .text.dpin_drive:0000000000000014 .LFE2
C:\Users\abdul\AppData\Local\Temp\ccS6Whod.s:23     .text.dpin_drive:0000000000000014 .LVL0
C:\Users\abdul\AppData\Local\Temp\ccS6Whod.s:127    .text.lio_OW_write_bit:0000000000000000 .LFB6
C:\Users\abdul\AppData\Local\Temp\ccS6Whod.s:185    .text.lio_OW_write_bit:0000000000000050 .LFE6
C:\Users\abdul\AppData\Local\Temp\ccS6Whod.s:2176   .debug_loc:0000000000000250 .LLST2
C:\Users\abdul\AppData\Local\Temp\ccS6Whod.s:2199   .debug_loc:0000000000000288 .LLST3
C:\Users\abdul\AppData\Local\Temp\ccS6Whod.s:141    .text.lio_OW_write_bit:0000000000000006 .LBB4
C:\Users\abdul\AppData\Local\Temp\ccS6Whod.s:157    .text.lio_OW_write_bit:0000000000000024 .LBE4
C:\Users\abdul\AppData\Local\Temp\ccS6Whod.s:2224   .debug_loc:00000000000002c2 .LLST4
C:\Users\abdul\AppData\Local\Temp\ccS6Whod.s:145    .text.lio_OW_write_bit:000000000000000e .LVL7
C:\Users\abdul\AppData\Local\Temp\ccS6Whod.s:149    .text.lio_OW_write_bit:0000000000000018 .LVL8
C:\Users\abdul\AppData\Local\Temp\ccS6Whod.s:152    .text.lio_OW_write_bit:0000000000000020 .LVL9
C:\Users\abdul\AppData\Local\Temp\ccS6Whod.s:167    .text.lio_OW_write_bit:0000000000000030 .LVL10
C:\Users\abdul\AppData\Local\Temp\ccS6Whod.s:173    .text.lio_OW_write_bit:0000000000000038 .LVL11
C:\Users\abdul\AppData\Local\Temp\ccS6Whod.s:177    .text.lio_OW_write_bit:0000000000000044 .LVL12
C:\Users\abdul\AppData\Local\Temp\ccS6Whod.s:180    .text.lio_OW_write_bit:000000000000004c .LVL13
C:\Users\abdul\AppData\Local\Temp\ccS6Whod.s:2426   .debug_str:0000000000000388 .LASF67
C:\Users\abdul\AppData\Local\Temp\ccS6Whod.s:2446   .debug_str:00000000000003ff .LASF68
C:\Users\abdul\AppData\Local\Temp\ccS6Whod.s:2376   .debug_str:0000000000000257 .LASF69
C:\Users\abdul\AppData\Local\Temp\ccS6Whod.s:2428   .debug_str:0000000000000392 .LASF70
C:\Users\abdul\AppData\Local\Temp\ccS6Whod.s:2300   .debug_str:0000000000000000 .LASF71
C:\Users\abdul\AppData\Local\Temp\ccS6Whod.s:2322   .debug_str:00000000000000fd .LASF72
C:\Users\abdul\AppData\Local\Temp\ccS6Whod.s:2406   .debug_str:0000000000000323 .LASF73
C:\Users\abdul\AppData\Local\Temp\ccS6Whod.s:451    .text.lio_read_temp:0000000000000002 .LCFI15
C:\Users\abdul\AppData\Local\Temp\ccS6Whod.s:543    .text.lio_read_temp:00000000000000c6 .LCFI16
C:\Users\abdul\AppData\Local\Temp\ccS6Whod.s:523    .text.lio_read_temp:00000000000000b0 .LVL63
C:\Users\abdul\AppData\Local\Temp\ccS6Whod.s:539    .text.lio_read_temp:00000000000000c0 .LVL66
C:\Users\abdul\AppData\Local\Temp\ccS6Whod.s:447    .text.lio_read_temp:0000000000000000 .LVL48
C:\Users\abdul\AppData\Local\Temp\ccS6Whod.s:531    .text.lio_read_temp:00000000000000ba .LVL65
C:\Users\abdul\AppData\Local\Temp\ccS6Whod.s:387    .text.lio_OW_touch_reset:0000000000000002 .LCFI13
C:\Users\abdul\AppData\Local\Temp\ccS6Whod.s:432    .text.lio_OW_touch_reset:0000000000000056 .LCFI14
C:\Users\abdul\AppData\Local\Temp\ccS6Whod.s:383    .text.lio_OW_touch_reset:0000000000000000 .LVL38
C:\Users\abdul\AppData\Local\Temp\ccS6Whod.s:418    .text.lio_OW_touch_reset:0000000000000042 .LVL45
GAS LISTING C:\Users\abdul\AppData\Local\Temp\ccS6Whod.s 			page 22


C:\Users\abdul\AppData\Local\Temp\ccS6Whod.s:430    .text.lio_OW_touch_reset:0000000000000054 .LVL47
C:\Users\abdul\AppData\Local\Temp\ccS6Whod.s:331    .text.lio_OW_write_byte:0000000000000002 .LCFI11
C:\Users\abdul\AppData\Local\Temp\ccS6Whod.s:368    .text.lio_OW_write_byte:0000000000000026 .LCFI12
C:\Users\abdul\AppData\Local\Temp\ccS6Whod.s:324    .text.lio_OW_write_byte:0000000000000000 .LVL31
C:\Users\abdul\AppData\Local\Temp\ccS6Whod.s:341    .text.lio_OW_write_byte:000000000000000a .LVL32
C:\Users\abdul\AppData\Local\Temp\ccS6Whod.s:366    .text.lio_OW_write_byte:0000000000000024 .LVL37
C:\Users\abdul\AppData\Local\Temp\ccS6Whod.s:343    .text.lio_OW_write_byte:000000000000000c .LVL33
C:\Users\abdul\AppData\Local\Temp\ccS6Whod.s:349    .text.lio_OW_write_byte:0000000000000012 .LVL34
C:\Users\abdul\AppData\Local\Temp\ccS6Whod.s:355    .text.lio_OW_write_byte:000000000000001c .LVL36
C:\Users\abdul\AppData\Local\Temp\ccS6Whod.s:261    .text.lio_OW_read_byte:0000000000000002 .LCFI9
C:\Users\abdul\AppData\Local\Temp\ccS6Whod.s:310    .text.lio_OW_read_byte:0000000000000032 .LCFI10
C:\Users\abdul\AppData\Local\Temp\ccS6Whod.s:254    .text.lio_OW_read_byte:0000000000000000 .LVL23
C:\Users\abdul\AppData\Local\Temp\ccS6Whod.s:273    .text.lio_OW_read_byte:000000000000000c .LVL24
C:\Users\abdul\AppData\Local\Temp\ccS6Whod.s:289    .text.lio_OW_read_byte:000000000000001c .LVL27
C:\Users\abdul\AppData\Local\Temp\ccS6Whod.s:291    .text.lio_OW_read_byte:0000000000000020 .LVL28
C:\Users\abdul\AppData\Local\Temp\ccS6Whod.s:306    .text.lio_OW_read_byte:000000000000002e .LVL30
C:\Users\abdul\AppData\Local\Temp\ccS6Whod.s:294    .text.lio_OW_read_byte:0000000000000022 .LVL29
C:\Users\abdul\AppData\Local\Temp\ccS6Whod.s:200    .text.lio_OW_read_bit:0000000000000002 .LCFI7
C:\Users\abdul\AppData\Local\Temp\ccS6Whod.s:239    .text.lio_OW_read_bit:0000000000000048 .LCFI8
C:\Users\abdul\AppData\Local\Temp\ccS6Whod.s:196    .text.lio_OW_read_bit:0000000000000000 .LVL14
C:\Users\abdul\AppData\Local\Temp\ccS6Whod.s:225    .text.lio_OW_read_bit:0000000000000034 .LVL20
C:\Users\abdul\AppData\Local\Temp\ccS6Whod.s:237    .text.lio_OW_read_bit:0000000000000046 .LVL22
C:\Users\abdul\AppData\Local\Temp\ccS6Whod.s:90     .text.lio_init_OW:0000000000000002 .LCFI2
C:\Users\abdul\AppData\Local\Temp\ccS6Whod.s:114    .text.lio_init_OW:0000000000000024 .LCFI3
C:\Users\abdul\AppData\Local\Temp\ccS6Whod.s:57     .text.dpin_sample:0000000000000006 .LCFI0
C:\Users\abdul\AppData\Local\Temp\ccS6Whod.s:73     .text.dpin_sample:0000000000000020 .LCFI1
C:\Users\abdul\AppData\Local\Temp\ccS6Whod.s:134    .text.lio_OW_write_bit:0000000000000002 .LCFI4
C:\Users\abdul\AppData\Local\Temp\ccS6Whod.s:163    .text.lio_OW_write_bit:0000000000000028 .LCFI5
C:\Users\abdul\AppData\Local\Temp\ccS6Whod.s:169    .text.lio_OW_write_bit:0000000000000030 .LCFI6
C:\Users\abdul\AppData\Local\Temp\ccS6Whod.s:130    .text.lio_OW_write_bit:0000000000000000 .LVL5
C:\Users\abdul\AppData\Local\Temp\ccS6Whod.s:140    .text.lio_OW_write_bit:0000000000000006 .LVL6
C:\Users\abdul\AppData\Local\Temp\ccS6Whod.s:566    .debug_info:0000000000000000 .Ldebug_info0
C:\Users\abdul\AppData\Local\Temp\ccS6Whod.s:256    .text.lio_OW_read_byte:0000000000000000 .LBB6
C:\Users\abdul\AppData\Local\Temp\ccS6Whod.s:258    .text.lio_OW_read_byte:0000000000000000 .LBE6
C:\Users\abdul\AppData\Local\Temp\ccS6Whod.s:275    .text.lio_OW_read_byte:000000000000000c .LBB7
C:\Users\abdul\AppData\Local\Temp\ccS6Whod.s:298    .text.lio_OW_read_byte:0000000000000028 .LBE7
C:\Users\abdul\AppData\Local\Temp\ccS6Whod.s:326    .text.lio_OW_write_byte:0000000000000000 .LBB8
C:\Users\abdul\AppData\Local\Temp\ccS6Whod.s:328    .text.lio_OW_write_byte:0000000000000000 .LBE8
C:\Users\abdul\AppData\Local\Temp\ccS6Whod.s:345    .text.lio_OW_write_byte:000000000000000c .LBB9
C:\Users\abdul\AppData\Local\Temp\ccS6Whod.s:358    .text.lio_OW_write_byte:000000000000001e .LBE9

UNDEFINED SYMBOLS
gpio_bit_reset
gpio_bit_set
gpio_input_bit_get
rcu_periph_clock_enable
gpio_init
delay_1us
delay_1ms
