GAS LISTING C:\Users\abdul\AppData\Local\Temp\cctEba3S.s 			page 1


   1              		.file	"main.c"
   2              		.option nopic
   3              		.attribute arch, "rv32i2p0_m2p0_a2p0_c2p0"
   4              		.attribute unaligned_access, 0
   5              		.attribute stack_align, 16
   6              		.text
   7              	.Ltext0:
   8              		.cfi_sections	.debug_frame
   9              		.section	.text.init_timer_settings,"ax",@progbits
  10              		.align	1
  11              		.globl	init_timer_settings
  13              	init_timer_settings:
  14              	.LFB7:
  15              		.file 1 "main.c"
   1:main.c        **** #include "gd32vf103.h"
   2:main.c        **** #include "usb_serial_if.h"
   3:main.c        **** #include "usb_delay.h"
   4:main.c        **** #include <adc.h>
   5:main.c        **** #include <lioonewire.h>
   6:main.c        **** #include <math.h>
   7:main.c        **** #include <stdlib.h>
   8:main.c        **** #include <string.h>
   9:main.c        **** #include <stdio.h>
  10:main.c        **** #include "systick.h"
  11:main.c        **** 
  12:main.c        **** #define USE_USB
  13:main.c        **** #define USE_USB_PRINTF
  14:main.c        **** 
  15:main.c        **** // ────────────────────────────────
  16:main.c        **** // pH-kalibreringskonstanter
  17:main.c        **** // ────────────────────────────────
  18:main.c        **** #define PH_OFFSET_MV 1644.0f // mV vid pH 7
  19:main.c        **** #define MV_PER_PH 177.3f     // mV per pH-enhet
  20:main.c        **** #define PH_NEUTRAL 7.0f
  21:main.c        **** 
  22:main.c        **** void init_timer_settings()
  23:main.c        **** {
  16              		.loc 1 23 1
  17              		.cfi_startproc
  24:main.c        ****     timer_deinit(TIMER5);
  18              		.loc 1 24 5
  23:main.c        ****     timer_deinit(TIMER5);
  19              		.loc 1 23 1 is_stmt 0
  20 0000 0111     		addi	sp,sp,-32
  21              	.LCFI0:
  22              		.cfi_def_cfa_offset 32
  23              		.loc 1 24 5
  24 0002 37150040 		li	a0,1073745920
  23:main.c        ****     timer_deinit(TIMER5);
  25              		.loc 1 23 1
  26 0006 06CE     		sw	ra,28(sp)
  27              		.cfi_offset 1, -4
  28              		.loc 1 24 5
  29 0008 97000000 		call	timer_deinit
  29      E7800000 
  30              	.LVL0:
  25:main.c        **** 
GAS LISTING C:\Users\abdul\AppData\Local\Temp\cctEba3S.s 			page 2


  26:main.c        ****     timer_parameter_struct timer_initpara;
  31              		.loc 1 26 5 is_stmt 1
  27:main.c        ****     timer_initpara.prescaler = 107;
  32              		.loc 1 27 5
  28:main.c        ****     timer_initpara.alignedmode = TIMER_COUNTER_EDGE;
  33              		.loc 1 28 5
  29:main.c        ****     timer_initpara.counterdirection = TIMER_COUNTER_UP;
  34              		.loc 1 29 5
  27:main.c        ****     timer_initpara.prescaler = 107;
  35              		.loc 1 27 30 is_stmt 0
  36 0010 9307B006 		li	a5,107
  37 0014 3EC0     		sw	a5,0(sp)
  30:main.c        ****     timer_initpara.period = 999;
  38              		.loc 1 30 27
  39 0016 9307703E 		li	a5,999
  40 001a 3EC4     		sw	a5,8(sp)
  31:main.c        ****     timer_initpara.clockdivision = TIMER_CKDIV_DIV1;
  32:main.c        ****     timer_initpara.repetitioncounter = 1;
  33:main.c        ****     timer_init(TIMER5, &timer_initpara);
  41              		.loc 1 33 5
  42 001c 8A85     		mv	a1,sp
  32:main.c        ****     timer_init(TIMER5, &timer_initpara);
  43              		.loc 1 32 38
  44 001e 8547     		li	a5,1
  45              		.loc 1 33 5
  46 0020 37150040 		li	a0,1073745920
  32:main.c        ****     timer_init(TIMER5, &timer_initpara);
  47              		.loc 1 32 38
  48 0024 2307F100 		sb	a5,14(sp)
  29:main.c        ****     timer_initpara.period = 999;
  49              		.loc 1 29 37
  50 0028 23120100 		sh	zero,4(sp)
  30:main.c        ****     timer_initpara.clockdivision = TIMER_CKDIV_DIV1;
  51              		.loc 1 30 5 is_stmt 1
  31:main.c        ****     timer_initpara.repetitioncounter = 1;
  52              		.loc 1 31 5
  31:main.c        ****     timer_initpara.repetitioncounter = 1;
  53              		.loc 1 31 34 is_stmt 0
  54 002c 23160100 		sh	zero,12(sp)
  32:main.c        ****     timer_init(TIMER5, &timer_initpara);
  55              		.loc 1 32 5 is_stmt 1
  56              		.loc 1 33 5
  57 0030 97000000 		call	timer_init
  57      E7800000 
  58              	.LVL1:
  34:main.c        **** 
  35:main.c        ****     timer_enable(TIMER5);
  59              		.loc 1 35 5
  60 0038 37150040 		li	a0,1073745920
  61 003c 97000000 		call	timer_enable
  61      E7800000 
  62              	.LVL2:
  36:main.c        **** }
  63              		.loc 1 36 1 is_stmt 0
  64 0044 F240     		lw	ra,28(sp)
  65              		.cfi_restore 1
  66 0046 0561     		addi	sp,sp,32
GAS LISTING C:\Users\abdul\AppData\Local\Temp\cctEba3S.s 			page 3


  67              	.LCFI1:
  68              		.cfi_def_cfa_offset 0
  69 0048 8280     		jr	ra
  70              		.cfi_endproc
  71              	.LFE7:
  73              		.globl	__floatsisf
  74              		.globl	__mulsf3
  75              		.globl	__divsf3
  76              		.globl	__subsf3
  77              		.globl	__ltsf2
  78              		.globl	__gtsf2
  79              		.globl	__fixsfsi
  80              		.section	.text.print_ph_value,"ax",@progbits
  81              		.align	1
  82              		.globl	print_ph_value
  84              	print_ph_value:
  85              	.LFB8:
  37:main.c        **** 
  38:main.c        **** void print_ph_value()
  39:main.c        **** {
  86              		.loc 1 39 1 is_stmt 1
  87              		.cfi_startproc
  40:main.c        ****     adc_software_trigger_enable(ADC0, ADC_REGULAR_CHANNEL);
  88              		.loc 1 40 5
  89 0000 37250140 		li	a0,1073815552
  39:main.c        ****     adc_software_trigger_enable(ADC0, ADC_REGULAR_CHANNEL);
  90              		.loc 1 39 1 is_stmt 0
  91 0004 7971     		addi	sp,sp,-48
  92              	.LCFI2:
  93              		.cfi_def_cfa_offset 48
  94              		.loc 1 40 5
  95 0006 8545     		li	a1,1
  96 0008 13050540 		addi	a0,a0,1024
  39:main.c        ****     adc_software_trigger_enable(ADC0, ADC_REGULAR_CHANNEL);
  97              		.loc 1 39 1
  98 000c 06D6     		sw	ra,44(sp)
  99 000e 22D4     		sw	s0,40(sp)
 100 0010 26D2     		sw	s1,36(sp)
 101 0012 4ECE     		sw	s3,28(sp)
 102 0014 4AD0     		sw	s2,32(sp)
 103              		.cfi_offset 1, -4
 104              		.cfi_offset 8, -8
 105              		.cfi_offset 9, -12
 106              		.cfi_offset 19, -20
 107              		.cfi_offset 18, -16
 108              		.loc 1 40 5
 109 0016 97000000 		call	adc_software_trigger_enable
 109      E7800000 
 110              	.LVL3:
  41:main.c        ****     usb_delay_1ms(10); // Ge DMA tid att uppdatera
 111              		.loc 1 41 5 is_stmt 1
 112 001e 2945     		li	a0,10
 113 0020 97000000 		call	usb_delay_1ms
 113      E7800000 
 114              	.LVL4:
  42:main.c        **** 
  43:main.c        ****     float millivolts = (adc_values[1] * 3300.0f) / 4095.0f;
GAS LISTING C:\Users\abdul\AppData\Local\Temp\cctEba3S.s 			page 4


 115              		.loc 1 43 5
 116              		.loc 1 43 39 is_stmt 0
 117 0028 B7070000 		lui	a5,%hi(adc_values+2)
 118 002c 03D52700 		lhu	a0,%lo(adc_values+2)(a5)
 119 0030 37040000 		lui	s0,%hi(.LANCHOR0)
 120 0034 93040400 		addi	s1,s0,%lo(.LANCHOR0)
 121 0038 97000000 		call	__floatsisf
 121      E7800000 
 122              	.LVL5:
 123 0040 CC40     		lw	a1,4(s1)
 124 0042 13040400 		addi	s0,s0,%lo(.LANCHOR0)
 125 0046 97000000 		call	__mulsf3
 125      E7800000 
 126              	.LVL6:
 127              		.loc 1 43 11
 128 004e 8C44     		lw	a1,8(s1)
 129 0050 97000000 		call	__divsf3
 129      E7800000 
 130              	.LVL7:
  44:main.c        ****     float ph = PH_NEUTRAL - ((millivolts - PH_OFFSET_MV) / MV_PER_PH);
 131              		.loc 1 44 42
 132 0058 CC44     		lw	a1,12(s1)
  43:main.c        ****     float ph = PH_NEUTRAL - ((millivolts - PH_OFFSET_MV) / MV_PER_PH);
 133              		.loc 1 43 11
 134 005a AA89     		mv	s3,a0
 135              	.LVL8:
 136              		.loc 1 44 5 is_stmt 1
 137              		.loc 1 44 42 is_stmt 0
 138 005c 97000000 		call	__subsf3
 138      E7800000 
 139              	.LVL9:
 140              		.loc 1 44 58
 141 0064 8C48     		lw	a1,16(s1)
 142 0066 97000000 		call	__divsf3
 142      E7800000 
 143              	.LVL10:
 144              		.loc 1 44 11
 145 006e AA85     		mv	a1,a0
 146 0070 C848     		lw	a0,20(s1)
 147 0072 97000000 		call	__subsf3
 147      E7800000 
 148              	.LVL11:
  45:main.c        **** 
  46:main.c        ****     if (ph < 0.0f)
 149              		.loc 1 46 8
 150 007a 93050000 		mv	a1,zero
  44:main.c        **** 
 151              		.loc 1 44 11
 152 007e AA84     		mv	s1,a0
 153              	.LVL12:
 154              		.loc 1 46 5 is_stmt 1
 155              		.loc 1 46 8 is_stmt 0
 156 0080 97000000 		call	__ltsf2
 156      E7800000 
 157              	.LVL13:
 158 0088 634F0508 		blt	a0,zero,.L7
  47:main.c        ****         ph = 0.0f;
GAS LISTING C:\Users\abdul\AppData\Local\Temp\cctEba3S.s 			page 5


  48:main.c        ****     if (ph > 14.0f)
 159              		.loc 1 48 5 is_stmt 1
 160              		.loc 1 48 8 is_stmt 0
 161 008c 03290400 		lw	s2,0(s0)
 162 0090 2685     		mv	a0,s1
 163 0092 CA85     		mv	a1,s2
 164 0094 97000000 		call	__gtsf2
 164      E7800000 
 165              	.LVL14:
 166 009c 6353A000 		ble	a0,zero,.L4
  49:main.c        ****         ph = 14.0f;
 167              		.loc 1 49 12
 168 00a0 CA84     		mv	s1,s2
 169              	.LVL15:
 170              	.L4:
  50:main.c        **** 
  51:main.c        ****     int16_t ph_int = (int16_t)ph;
 171              		.loc 1 51 5 is_stmt 1
 172              		.loc 1 51 13 is_stmt 0
 173 00a2 2685     		mv	a0,s1
 174 00a4 97000000 		call	__fixsfsi
 174      E7800000 
 175              	.LVL16:
 176 00ac 13190501 		slli	s2,a0,16
 177 00b0 13590941 		srai	s2,s2,16
 178              	.LVL17:
  52:main.c        ****     int16_t ph_dec = (int16_t)((ph - ph_int) * 10.0f);
 179              		.loc 1 52 5 is_stmt 1
 180              		.loc 1 52 36 is_stmt 0
 181 00b4 4A85     		mv	a0,s2
 182 00b6 97000000 		call	__floatsisf
 182      E7800000 
 183              	.LVL18:
 184 00be AA85     		mv	a1,a0
 185 00c0 2685     		mv	a0,s1
 186 00c2 97000000 		call	__subsf3
 186      E7800000 
 187              	.LVL19:
 188              		.loc 1 52 46
 189 00ca 0C4C     		lw	a1,24(s0)
 190 00cc 97000000 		call	__mulsf3
 190      E7800000 
 191              	.LVL20:
 192              		.loc 1 52 13
 193 00d4 97000000 		call	__fixsfsi
 193      E7800000 
 194              	.LVL21:
 195 00dc 13160501 		slli	a2,a0,16
 196 00e0 4186     		srai	a2,a2,16
 197              	.LVL22:
  53:main.c        ****     if (ph_dec < 0)
 198              		.loc 1 53 5 is_stmt 1
 199              		.loc 1 53 8 is_stmt 0
 200 00e2 63560600 		bge	a2,zero,.L6
  54:main.c        ****         ph_dec = -ph_dec;
 201              		.loc 1 54 9 is_stmt 1
 202              		.loc 1 54 16 is_stmt 0
GAS LISTING C:\Users\abdul\AppData\Local\Temp\cctEba3S.s 			page 6


 203 00e6 3306C040 		neg	a2,a2
 204              	.LVL23:
 205 00ea 4206     		slli	a2,a2,16
 206              	.LVL24:
 207 00ec 4186     		srai	a2,a2,16
 208              	.LVL25:
 209              	.L6:
  55:main.c        **** 
  56:main.c        ****     int16_t mv_int = (int16_t)millivolts;
 210              		.loc 1 56 13
 211 00ee 4E85     		mv	a0,s3
 212 00f0 32C6     		sw	a2,12(sp)
 213              	.LVL26:
 214              		.loc 1 56 5 is_stmt 1
  57:main.c        **** 
  58:main.c        ****     printf("pH: %d.%d  /  mV: %d\r\n", ph_int, ph_dec, mv_int);
 215              		.loc 1 58 5
  56:main.c        **** 
 216              		.loc 1 56 13 is_stmt 0
 217 00f2 97000000 		call	__fixsfsi
 217      E7800000 
 218              	.LVL27:
 219              		.loc 1 58 5
 220 00fa 3246     		lw	a2,12(sp)
 221 00fc 93160501 		slli	a3,a0,16
 222 0100 CA85     		mv	a1,s2
 223 0102 1305C401 		addi	a0,s0,28
 224 0106 C186     		srai	a3,a3,16
 225 0108 97000000 		call	printf
 225      E7800000 
 226              	.LVL28:
  59:main.c        ****     fflush(0);
 227              		.loc 1 59 5 is_stmt 1
  60:main.c        **** }
 228              		.loc 1 60 1 is_stmt 0
 229 0110 2254     		lw	s0,40(sp)
 230              		.cfi_remember_state
 231              		.cfi_restore 8
 232 0112 B250     		lw	ra,44(sp)
 233              		.cfi_restore 1
 234 0114 9254     		lw	s1,36(sp)
 235              		.cfi_restore 9
 236              	.LVL29:
 237 0116 0259     		lw	s2,32(sp)
 238              		.cfi_restore 18
 239              	.LVL30:
 240 0118 F249     		lw	s3,28(sp)
 241              		.cfi_restore 19
 242              	.LVL31:
  59:main.c        ****     fflush(0);
 243              		.loc 1 59 5
 244 011a 0145     		li	a0,0
 245              		.loc 1 60 1
 246 011c 4561     		addi	sp,sp,48
 247              	.LCFI3:
 248              		.cfi_def_cfa_offset 0
 249              	.LVL32:
GAS LISTING C:\Users\abdul\AppData\Local\Temp\cctEba3S.s 			page 7


  59:main.c        ****     fflush(0);
 250              		.loc 1 59 5
 251 011e 17030000 		tail	fflush
 251      67000300 
 252              	.LVL33:
 253              	.L7:
 254              	.LCFI4:
 255              		.cfi_restore_state
  47:main.c        ****     if (ph > 14.0f)
 256              		.loc 1 47 12
 257 0126 93040000 		mv	s1,zero
 258              	.LVL34:
 259 012a A5BF     		j	.L4
 260              		.cfi_endproc
 261              	.LFE8:
 263              		.section	.text.print_temp_value,"ax",@progbits
 264              		.align	1
 265              		.globl	print_temp_value
 267              	print_temp_value:
 268              	.LFB9:
  61:main.c        **** 
  62:main.c        **** void print_temp_value()
  63:main.c        **** {
 269              		.loc 1 63 1 is_stmt 1
 270              		.cfi_startproc
  64:main.c        ****     int16_t raw = lio_read_temp();
 271              		.loc 1 64 5
  63:main.c        ****     int16_t raw = lio_read_temp();
 272              		.loc 1 63 1 is_stmt 0
 273 0000 0111     		addi	sp,sp,-32
 274              	.LCFI5:
 275              		.cfi_def_cfa_offset 32
 276 0002 06CE     		sw	ra,28(sp)
 277 0004 22CC     		sw	s0,24(sp)
 278 0006 26CA     		sw	s1,20(sp)
 279 0008 4AC8     		sw	s2,16(sp)
 280 000a 4EC6     		sw	s3,12(sp)
 281              		.cfi_offset 1, -4
 282              		.cfi_offset 8, -8
 283              		.cfi_offset 9, -12
 284              		.cfi_offset 18, -16
 285              		.cfi_offset 19, -20
  65:main.c        **** 
  66:main.c        ****     // DS18B20 råvärde är i 1/16-graders steg
  67:main.c        ****     // Division med 16.0f hanterar både positiva och negativa värden korrekt
  68:main.c        ****     float temp = raw / 16.0f;
 286              		.loc 1 68 11
 287 000c 37040000 		lui	s0,%hi(.LANCHOR0)
  64:main.c        **** 
 288              		.loc 1 64 19
 289 0010 97000000 		call	lio_read_temp
 289      E7800000 
 290              	.LVL35:
 291              		.loc 1 68 5 is_stmt 1
 292              		.loc 1 68 22 is_stmt 0
 293 0018 97000000 		call	__floatsisf
 293      E7800000 
GAS LISTING C:\Users\abdul\AppData\Local\Temp\cctEba3S.s 			page 8


 294              	.LVL36:
 295              		.loc 1 68 11
 296 0020 13090400 		addi	s2,s0,%lo(.LANCHOR0)
 297 0024 83254903 		lw	a1,52(s2)
 298 0028 97000000 		call	__mulsf3
 298      E7800000 
 299              	.LVL37:
 300 0030 AA89     		mv	s3,a0
 301              	.LVL38:
  69:main.c        **** 
  70:main.c        ****     // Dela upp i heltal och decimal för printf
  71:main.c        ****     int16_t temp_int = (int16_t)temp;
 302              		.loc 1 71 5 is_stmt 1
 303              		.loc 1 71 13 is_stmt 0
 304 0032 97000000 		call	__fixsfsi
 304      E7800000 
 305              	.LVL39:
 306 003a 93140501 		slli	s1,a0,16
 307 003e C184     		srai	s1,s1,16
 308              	.LVL40:
  72:main.c        ****     int16_t temp_dec = (int16_t)((temp - temp_int) * 100.0f);
 309              		.loc 1 72 5 is_stmt 1
 310              		.loc 1 72 40 is_stmt 0
 311 0040 2685     		mv	a0,s1
 312 0042 97000000 		call	__floatsisf
 312      E7800000 
 313              	.LVL41:
 314 004a AA85     		mv	a1,a0
 315 004c 4E85     		mv	a0,s3
 316 004e 97000000 		call	__subsf3
 316      E7800000 
 317              	.LVL42:
 318              		.loc 1 72 52
 319 0056 83258903 		lw	a1,56(s2)
 320 005a 97000000 		call	__mulsf3
 320      E7800000 
 321              	.LVL43:
 322              		.loc 1 72 13
 323 0062 97000000 		call	__fixsfsi
 323      E7800000 
 324              	.LVL44:
 325 006a 13160501 		slli	a2,a0,16
 326 006e 4186     		srai	a2,a2,16
 327              	.LVL45:
  73:main.c        ****     if (temp_dec < 0)
 328              		.loc 1 73 5 is_stmt 1
 329 0070 13050400 		addi	a0,s0,%lo(.LANCHOR0)
 330              		.loc 1 73 8 is_stmt 0
 331 0074 63560600 		bge	a2,zero,.L11
  74:main.c        ****         temp_dec = -temp_dec;
 332              		.loc 1 74 9 is_stmt 1
 333              		.loc 1 74 18 is_stmt 0
 334 0078 3306C040 		neg	a2,a2
 335              	.LVL46:
 336 007c 4206     		slli	a2,a2,16
 337              	.LVL47:
 338 007e 4186     		srai	a2,a2,16
GAS LISTING C:\Users\abdul\AppData\Local\Temp\cctEba3S.s 			page 9


 339              	.LVL48:
 340              	.L11:
  75:main.c        **** 
  76:main.c        ****     printf("Temp: %d.%02d C\r\n", temp_int, temp_dec);
 341              		.loc 1 76 5 is_stmt 1
 342 0080 A685     		mv	a1,s1
 343 0082 1305C503 		addi	a0,a0,60
 344 0086 97000000 		call	printf
 344      E7800000 
 345              	.LVL49:
  77:main.c        ****     fflush(0);
 346              		.loc 1 77 5
  78:main.c        **** }
 347              		.loc 1 78 1 is_stmt 0
 348 008e 6244     		lw	s0,24(sp)
 349              		.cfi_restore 8
 350 0090 F240     		lw	ra,28(sp)
 351              		.cfi_restore 1
 352 0092 D244     		lw	s1,20(sp)
 353              		.cfi_restore 9
 354              	.LVL50:
 355 0094 4249     		lw	s2,16(sp)
 356              		.cfi_restore 18
 357 0096 B249     		lw	s3,12(sp)
 358              		.cfi_restore 19
 359              	.LVL51:
  77:main.c        ****     fflush(0);
 360              		.loc 1 77 5
 361 0098 0145     		li	a0,0
 362              		.loc 1 78 1
 363 009a 0561     		addi	sp,sp,32
 364              	.LCFI6:
 365              		.cfi_def_cfa_offset 0
  77:main.c        ****     fflush(0);
 366              		.loc 1 77 5
 367 009c 17030000 		tail	fflush
 367      67000300 
 368              	.LVL52:
 369              		.cfi_endproc
 370              	.LFE9:
 372              		.section	.text.startup.main,"ax",@progbits
 373              		.align	1
 374              		.globl	main
 376              	main:
 377              	.LFB10:
  79:main.c        **** 
  80:main.c        **** int main()
  81:main.c        **** {
 378              		.loc 1 81 1 is_stmt 1
 379              		.cfi_startproc
 380 0000 4111     		addi	sp,sp,-16
 381              	.LCFI7:
 382              		.cfi_def_cfa_offset 16
 383 0002 06C6     		sw	ra,12(sp)
 384              		.cfi_offset 1, -4
  82:main.c        ****     while (!usb_serial_available())
 385              		.loc 1 82 5
GAS LISTING C:\Users\abdul\AppData\Local\Temp\cctEba3S.s 			page 10


 386              	.L14:
 387              		.loc 1 82 13 is_stmt 0
 388 0004 97000000 		call	usb_serial_available
 388      E7800000 
 389              	.LVL53:
 390              		.loc 1 82 11
 391 000c 39C1     		beq	a0,zero,.L15
  83:main.c        ****         usb_delay_1ms(100);
  84:main.c        ****         
  85:main.c        ****     rcu_periph_clock_enable(RCU_TIMER5);
 392              		.loc 1 85 5 is_stmt 1
 393 000e 13054070 		li	a0,1796
 394 0012 97000000 		call	rcu_periph_clock_enable
 394      E7800000 
 395              	.LVL54:
  86:main.c        ****     init_timer_settings();
 396              		.loc 1 86 5
 397 001a 97000000 		call	init_timer_settings
 397      E7800000 
 398              	.LVL55:
  87:main.c        ****     ADC3powerUpInit(1);
 399              		.loc 1 87 5
 400 0022 0545     		li	a0,1
 401 0024 97000000 		call	ADC3powerUpInit
 401      E7800000 
 402              	.LVL56:
  88:main.c        ****     lio_init_OW();
 403              		.loc 1 88 5
 404 002c 97000000 		call	lio_init_OW
 404      E7800000 
 405              	.LVL57:
  89:main.c        **** 
  90:main.c        ****     configure_usb_serial();
 406              		.loc 1 90 5
 407 0034 97000000 		call	configure_usb_serial
 407      E7800000 
 408              	.LVL58:
 409              	.L16:
  91:main.c        **** 
  92:main.c        ****     while (1)
 410              		.loc 1 92 5 discriminator 1
  93:main.c        ****     {
  94:main.c        **** 
  95:main.c        ****         print_temp_value();
 411              		.loc 1 95 9 discriminator 1
 412 003c 97000000 		call	print_temp_value
 412      E7800000 
 413              	.LVL59:
  96:main.c        ****         usb_delay_1ms(1000);
 414              		.loc 1 96 9 discriminator 1
 415 0044 1305803E 		li	a0,1000
 416 0048 97000000 		call	usb_delay_1ms
 416      E7800000 
 417              	.LVL60:
 418 0050 F5B7     		j	.L16
 419              	.L15:
  83:main.c        ****         
GAS LISTING C:\Users\abdul\AppData\Local\Temp\cctEba3S.s 			page 11


 420              		.loc 1 83 9
 421 0052 13054006 		li	a0,100
 422 0056 97000000 		call	usb_delay_1ms
 422      E7800000 
 423              	.LVL61:
 424 005e 5DB7     		j	.L14
 425              		.cfi_endproc
 426              	.LFE10:
 428              		.section	.rodata
 429              		.align	2
 430              		.set	.LANCHOR0,. + 0
 431              	.LC0:
 432 0000 00006041 		.word	1096810496
 433              	.LC1:
 434 0004 00404E45 		.word	1162756096
 435              	.LC2:
 436 0008 00F07F45 		.word	1166012416
 437              	.LC3:
 438 000c 0080CD44 		.word	1154318336
 439              	.LC4:
 440 0010 CD4C3143 		.word	1127304397
 441              	.LC5:
 442 0014 0000E040 		.word	1088421888
 443              	.LC6:
 444 0018 00002041 		.word	1092616192
 445              	.LC7:
 446 001c 70483A20 		.string	"pH: %d.%d  /  mV: %d\r\n"
 446      25642E25 
 446      6420202F 
 446      20206D56 
 446      3A202564 
 447 0033 00       		.zero	1
 448              	.LC8:
 449 0034 0000803D 		.word	1031798784
 450              	.LC9:
 451 0038 0000C842 		.word	1120403456
 452              	.LC10:
 453 003c 54656D70 		.string	"Temp: %d.%02d C\r\n"
 453      3A202564 
 453      2E253032 
 453      6420430D 
 453      0A00
 454              		.text
 455              	.Letext0:
 456              		.file 2 "c:\\users\\abdul\\onedrive\\documents\\toolchain-gd32v-v202-win\\compiler\\riscv64-unknow
 457              		.file 3 "c:\\users\\abdul\\onedrive\\documents\\toolchain-gd32v-v202-win\\compiler\\riscv64-unknow
 458              		.file 4 "./../../firmware/GD32VF103_standard_peripheral/Include/gd32vf103_timer.h"
 459              		.file 5 "lib/usbcdc/include/drv_usb_regs.h"
 460              		.file 6 "./../../firmware/GD32VF103_standard_peripheral/system_gd32vf103.h"
 461              		.file 7 "lib/usbcdc/include/usb_ch9_std.h"
 462              		.file 8 "lib/usbcdc/include/drv_usb_core.h"
 463              		.file 9 "lib/usbcdc/include/drv_usb_dev.h"
 464              		.file 10 "c:\\users\\abdul\\onedrive\\documents\\toolchain-gd32v-v202-win\\compiler\\lib\\gcc\\ris
 465              		.file 11 "c:\\users\\abdul\\onedrive\\documents\\toolchain-gd32v-v202-win\\compiler\\riscv64-unkno
 466              		.file 12 "c:\\users\\abdul\\onedrive\\documents\\toolchain-gd32v-v202-win\\compiler\\riscv64-unkno
 467              		.file 13 "c:\\users\\abdul\\onedrive\\documents\\toolchain-gd32v-v202-win\\compiler\\riscv64-unkno
 468              		.file 14 "lib/usbcdc/include/cdc_acm_core.h"
GAS LISTING C:\Users\abdul\AppData\Local\Temp\cctEba3S.s 			page 12


 469              		.file 15 "c:\\users\\abdul\\onedrive\\documents\\toolchain-gd32v-v202-win\\compiler\\riscv64-unkno
 470              		.file 16 "lib/usbcdc/include/usb_serial_if.h"
 471              		.file 17 "./adc.h"
 472              		.file 18 "c:\\users\\abdul\\onedrive\\documents\\toolchain-gd32v-v202-win\\compiler\\riscv64-unkno
 473              		.file 19 "./../../firmware/GD32VF103_standard_peripheral/Include/gd32vf103_rcu.h"
 474              		.file 20 "./lioonewire.h"
 475              		.file 21 "lib/usbcdc/include/usb_delay.h"
 476              		.file 22 "c:\\users\\abdul\\onedrive\\documents\\toolchain-gd32v-v202-win\\compiler\\riscv64-unkno
 477              		.file 23 "./../../firmware/GD32VF103_standard_peripheral/Include/gd32vf103_adc.h"
GAS LISTING C:\Users\abdul\AppData\Local\Temp\cctEba3S.s 			page 13

